ARM GAS  C:\Users\8523~1\AppData\Local\Temp\ccJE8vL2.s 			page 1


   1              		.syntax unified
   2              		.cpu cortex-m3
   3              		.fpu softvfp
   4              		.eabi_attribute 20, 1
   5              		.eabi_attribute 21, 1
   6              		.eabi_attribute 23, 3
   7              		.eabi_attribute 24, 1
   8              		.eabi_attribute 25, 1
   9              		.eabi_attribute 26, 1
  10              		.eabi_attribute 30, 1
  11              		.eabi_attribute 34, 1
  12              		.eabi_attribute 18, 4
  13              		.thumb
  14              		.syntax unified
  15              		.file	"main.c"
  16              		.text
  17              	.Ltext0:
  18              		.cfi_sections	.debug_frame
  19              		.section	.text.sensors,"ax",%progbits
  20              		.align	2
  21              		.global	sensors
  22              		.thumb
  23              		.thumb_func
  24              		.type	sensors, %function
  25              	sensors:
  26              	.LFB86:
  27              		.file 1 "main.c"
   1:main.c        **** /**
   2:main.c        **** * @mainpage ZumoBot Project
   3:main.c        **** * @brief    You can make your own ZumoBot with various sensors.
   4:main.c        **** * @details  <br><br>
   5:main.c        ****     <p>
   6:main.c        ****     <B>General</B><br>
   7:main.c        ****     You will use Pololu Zumo Shields for your robot project with CY8CKIT-059(PSoC 5LP) from Cypress
   8:main.c        ****     library has basic methods of various sensors and communications so that you can make what you w
   9:main.c        ****     <br><br>
  10:main.c        ****     </p>
  11:main.c        ****     
  12:main.c        ****     <p>
  13:main.c        ****     <B>Sensors</B><br>
  14:main.c        ****     &nbsp;Included: <br>
  15:main.c        ****         &nbsp;&nbsp;&nbsp;&nbsp;LSM303D: Accelerometer & Magnetometer<br>
  16:main.c        ****         &nbsp;&nbsp;&nbsp;&nbsp;L3GD20H: Gyroscope<br>
  17:main.c        ****         &nbsp;&nbsp;&nbsp;&nbsp;Reflectance sensor<br>
  18:main.c        ****         &nbsp;&nbsp;&nbsp;&nbsp;Motors
  19:main.c        ****     &nbsp;Wii nunchuck<br>
  20:main.c        ****     &nbsp;TSOP-2236: IR Receiver<br>
  21:main.c        ****     &nbsp;HC-SR04: Ultrasonic sensor<br>
  22:main.c        ****     &nbsp;APDS-9301: Ambient light sensor<br>
  23:main.c        ****     &nbsp;IR LED <br><br><br>
  24:main.c        ****     </p>
  25:main.c        ****     
  26:main.c        ****     <p>
  27:main.c        ****     <B>Communication</B><br>
  28:main.c        ****     I2C, UART, Serial<br>
  29:main.c        ****     </p>
  30:main.c        **** */
ARM GAS  C:\Users\8523~1\AppData\Local\Temp\ccJE8vL2.s 			page 2


  31:main.c        **** 
  32:main.c        **** #include <project.h>
  33:main.c        **** #include <stdio.h>
  34:main.c        **** #include "FreeRTOS.h"
  35:main.c        **** #include "task.h"
  36:main.c        **** #include "Motor.h"
  37:main.c        **** #include "Ultra.h"
  38:main.c        **** #include "Nunchuk.h"
  39:main.c        **** #include "Reflectance.h"
  40:main.c        **** #include "Gyro.h"
  41:main.c        **** #include "Accel_magnet.h"
  42:main.c        **** #include "LSM303D.h"
  43:main.c        **** #include "IR.h"
  44:main.c        **** #include "Beep.h"
  45:main.c        **** #include "mqtt_sender.h"
  46:main.c        **** #include <time.h>
  47:main.c        **** #include <sys/time.h>
  48:main.c        **** #include "serial1.h"
  49:main.c        **** #include <unistd.h>
  50:main.c        **** #include <stdlib.h>
  51:main.c        **** 
  52:main.c        **** //natural notes:
  53:main.c        **** 
  54:main.c        ****             #define G1 255
  55:main.c        ****             #define A1 227
  56:main.c        ****             #define B1 202
  57:main.c        ****             #define C1 191
  58:main.c        ****             #define D1 170
  59:main.c        ****             #define E1 152
  60:main.c        ****             #define F1 143
  61:main.c        ****             #define G2 128
  62:main.c        ****             #define A2 114
  63:main.c        ****             #define B2 101
  64:main.c        ****             #define C2 96
  65:main.c        ****             #define D2 85
  66:main.c        ****             #define E2 76
  67:main.c        ****             #define F2 72
  68:main.c        ****             #define G3 64
  69:main.c        ****             #define A3 57
  70:main.c        ****             #define B3 51
  71:main.c        ****             #define C3 48
  72:main.c        ****             #define D3 43
  73:main.c        ****             #define E3 38
  74:main.c        ****             #define F3 36
  75:main.c        ****             #define G4 32
  76:main.c        ****             
  77:main.c        ****                             //sharp notes:
  78:main.c        ****             
  79:main.c        ****                             #define Gs1 241
  80:main.c        ****                             #define As1 214
  81:main.c        ****                             #define Cs1 180
  82:main.c        ****                             #define Ds1 161
  83:main.c        ****                             #define Fs1 135
  84:main.c        ****                             #define Gs2 120
  85:main.c        ****                             #define As2 107
  86:main.c        ****                             #define Cs2 90
  87:main.c        ****                             #define Ds2 80
ARM GAS  C:\Users\8523~1\AppData\Local\Temp\ccJE8vL2.s 			page 3


  88:main.c        ****                             #define Fs2 68
  89:main.c        ****                             #define Gs3 60
  90:main.c        ****                             #define As3 54
  91:main.c        ****                             #define Cs3 45
  92:main.c        ****                             #define Ds3 40
  93:main.c        ****                             #define Fs3 34
  94:main.c        **** 
  95:main.c        **** /**
  96:main.c        ****  * @file    main.c
  97:main.c        ****  * @brief   
  98:main.c        ****  * @details  ** Enable global interrupt since Zumo library uses interrupts. **<br>&nbsp;&nbsp;&nbsp
  99:main.c        **** */
 100:main.c        **** 
 101:main.c        **** #if 0
 102:main.c        **** 
 103:main.c        ****     // PROJECT // 1:RING //
 104:main.c        **** 
 105:main.c        **** int line, x_or_x;    
 106:main.c        **** int x, y, angle, hittime, distance;
 107:main.c        **** TickType_t starttime, finishtime, timepass;
 108:main.c        **** void sensors();    
 109:main.c        **** void reflectance();
 110:main.c        **** void linefollow();
 111:main.c        **** void ring();
 112:main.c        **** void escape();
 113:main.c        **** void accangles();
 114:main.c        **** void tank_turn_left(uint8, uint32);
 115:main.c        **** void tank_turn_right(uint8, uint32);
 116:main.c        ****     
 117:main.c        **** void zmain(void)
 118:main.c        **** {   
 119:main.c        ****     IR_Start();    
 120:main.c        ****     LSM303D_Start();
 121:main.c        ****     reflectance_start();
 122:main.c        ****     IR_flush();
 123:main.c        ****     Ultra_Start();
 124:main.c        ****     motor_start();
 125:main.c        ****     
 126:main.c        ****     while(SW1_Read() == 1);             // Wait for user button
 127:main.c        ****     
 128:main.c        ****     while(x_or_x != 1)             // Drive to first line
 129:main.c        ****         {
 130:main.c        ****             sensors();
 131:main.c        ****             
 132:main.c        ****             linefollow();  
 133:main.c        ****         }
 134:main.c        ****         
 135:main.c        ****     motor_forward(0, 0);
 136:main.c        ****     print_mqtt("Zumo021/ready ", "zumo");    
 137:main.c        ****     
 138:main.c        ****     while(true)             // Wait for IR signal
 139:main.c        ****         {
 140:main.c        ****             IR_wait();
 141:main.c        ****             
 142:main.c        ****             starttime = xTaskGetTickCount();      
 143:main.c        ****             print_mqtt("Zumo021/start ", "%d", starttime);
 144:main.c        ****             
ARM GAS  C:\Users\8523~1\AppData\Local\Temp\ccJE8vL2.s 			page 4


 145:main.c        ****             motor_forward(255, 100);
 146:main.c        ****             
 147:main.c        ****             break;
 148:main.c        ****         }
 149:main.c        **** 
 150:main.c        ****     while(SW1_Read() == 1)             // Drive
 151:main.c        ****         {  
 152:main.c        ****             sensors();
 153:main.c        ****             
 154:main.c        ****             //accangles();
 155:main.c        ****             
 156:main.c        ****             ring();
 157:main.c        ****             
 158:main.c        ****             escape();
 159:main.c        ****         }
 160:main.c        ****     
 161:main.c        ****     motor_stop();
 162:main.c        ****     
 163:main.c        ****     finishtime = xTaskGetTickCount(); 
 164:main.c        ****     print_mqtt("Zumo021/stop ", "%d", finishtime);
 165:main.c        ****     
 166:main.c        ****     timepass = finishtime - starttime;
 167:main.c        ****     print_mqtt("Zumo021/time ", "%d", timepass);
 168:main.c        ****     
 169:main.c        **** }   
 170:main.c        **** 
 171:main.c        **** void sensors(void)
 172:main.c        ****     {
 173:main.c        ****         struct sensors_ dig;
 174:main.c        ****         
 175:main.c        ****         reflectance_set_threshold(15000, 15000, 15000, 15000, 15000, 15000);
 176:main.c        **** 
 177:main.c        ****         reflectance_digital(&dig);
 178:main.c        ****         
 179:main.c        ****         line = 32*dig.l3 + 16*dig.l2 + 8*dig.l1 + 4*dig.r1 + 2*dig.r2 + 1*dig.r3;
 180:main.c        ****         
 181:main.c        ****         if (dig.l3 == 1 || dig.r3==1)
 182:main.c        ****             {
 183:main.c        ****                 x_or_x = 1;
 184:main.c        ****             }
 185:main.c        ****             
 186:main.c        ****         else x_or_x = 0;
 187:main.c        ****             
 188:main.c        ****         distance = Ultra_GetDistance();    
 189:main.c        ****     }
 190:main.c        ****   
 191:main.c        **** void linefollow(void)
 192:main.c        ****     {   
 193:main.c        ****         if (line == 0b001100)
 194:main.c        ****             {
 195:main.c        ****                 motor_forward(100, 0);
 196:main.c        ****             }
 197:main.c        ****             
 198:main.c        ****         else if (line == 0b011000)
 199:main.c        ****             {
 200:main.c        ****                 motor_turn(50, 200, 0);
 201:main.c        ****             }
ARM GAS  C:\Users\8523~1\AppData\Local\Temp\ccJE8vL2.s 			page 5


 202:main.c        ****             
 203:main.c        ****         else if (line == 0b000110)
 204:main.c        ****             {
 205:main.c        ****                 motor_turn(200, 50, 0);
 206:main.c        ****             }
 207:main.c        ****                 
 208:main.c        ****         else motor_forward(100, 0);
 209:main.c        ****     }
 210:main.c        ****     
 211:main.c        **** void ring(void)
 212:main.c        ****     {
 213:main.c        ****         int r = rand() % 2;
 214:main.c        ****         
 215:main.c        ****         for (int i = 0; i <500; i++)
 216:main.c        ****             {
 217:main.c        ****                 sensors();
 218:main.c        ****                 
 219:main.c        ****                 if (x_or_x != 1 && distance > 30)
 220:main.c        ****                     {
 221:main.c        ****                         motor_forward (200, 1);
 222:main.c        ****                     }
 223:main.c        ****                     
 224:main.c        ****                 else break;
 225:main.c        ****             }
 226:main.c        ****             
 227:main.c        ****         if (r == 0)                                      // turn left
 228:main.c        ****                 {
 229:main.c        ****                     for (int i = 0; i <200; i++)
 230:main.c        ****                         {
 231:main.c        ****                             sensors();
 232:main.c        ****                             
 233:main.c        ****                             if (x_or_x != 1 && distance > 30)
 234:main.c        ****                                 {
 235:main.c        ****                                     motor_turn(0, 255, 1);
 236:main.c        ****                                 }
 237:main.c        ****                                 
 238:main.c        ****                             else break;  
 239:main.c        ****                         }
 240:main.c        ****                 }
 241:main.c        ****             
 242:main.c        ****         if (r == 1)                                      // turn right
 243:main.c        ****             {
 244:main.c        ****                 for (int i = 0; i <200; i++)
 245:main.c        ****                     {
 246:main.c        ****                         sensors();
 247:main.c        ****                         
 248:main.c        ****                         if (x_or_x != 1 && distance > 30)
 249:main.c        ****                             {
 250:main.c        ****                                 motor_turn(255, 0, 1);
 251:main.c        ****                             }
 252:main.c        ****                             
 253:main.c        ****                         else break;     
 254:main.c        ****                     }
 255:main.c        ****             }
 256:main.c        ****         
 257:main.c        ****         if (x_or_x != 1 && distance < 30) //attack
 258:main.c        ****             {
ARM GAS  C:\Users\8523~1\AppData\Local\Temp\ccJE8vL2.s 			page 6


 259:main.c        ****                 motor_forward(255, 0);
 260:main.c        ****             }
 261:main.c        ****     }  
 262:main.c        ****     
 263:main.c        **** void escape(void)
 264:main.c        ****     {
 265:main.c        ****         int r = rand() % 2;
 266:main.c        ****         
 267:main.c        ****         if (x_or_x == 1)
 268:main.c        ****             {
 269:main.c        ****                 motor_backward(255, 200);
 270:main.c        ****             }
 271:main.c        ****             
 272:main.c        ****         if (x_or_x == 1 && r == 0)
 273:main.c        ****                 {
 274:main.c        ****                     tank_turn_left(255, 200);
 275:main.c        ****                     motor_forward(0, 0);
 276:main.c        ****                 }
 277:main.c        ****                 
 278:main.c        ****                 else if (x_or_x == 1 && r == 1)
 279:main.c        ****                 {
 280:main.c        ****                     tank_turn_right(255, 200);
 281:main.c        ****                     motor_forward(0, 0);
 282:main.c        ****                 }     
 283:main.c        ****     }
 284:main.c        ****     
 285:main.c        **** void accangles(void)
 286:main.c        ****     {
 287:main.c        ****         struct accData_ data;
 288:main.c        ****         
 289:main.c        ****         LSM303D_Read_Acc(&data);
 290:main.c        ****         hittime = xTaskGetTickCount();
 291:main.c        ****             
 292:main.c        ****         x = data.accX;
 293:main.c        ****         y = data.accY;
 294:main.c        **** 
 295:main.c        ****         if (x < -20000 || y > 20000 ) 
 296:main.c        ****             {
 297:main.c        ****                 if (x < -20000 && y > 20000 )
 298:main.c        ****                     {
 299:main.c        ****                         angle = 45;
 300:main.c        ****                     }
 301:main.c        ****                 
 302:main.c        ****                 else if (x < -20000)
 303:main.c        ****                     {
 304:main.c        ****                         angle = 0;
 305:main.c        ****                     }
 306:main.c        ****                     
 307:main.c        ****                 else if (y > 20000) 
 308:main.c        ****                     {
 309:main.c        ****                         angle = 90;
 310:main.c        ****                     }
 311:main.c        ****                     
 312:main.c        ****                 print_mqtt("Zumo021/hit ", "%d %d", hittime, angle);    
 313:main.c        ****             } 
 314:main.c        ****             
 315:main.c        ****             else if (y < -20000 || x > 20000)
ARM GAS  C:\Users\8523~1\AppData\Local\Temp\ccJE8vL2.s 			page 7


 316:main.c        ****                 {
 317:main.c        ****                     if (y < -20000 && x > 20000)
 318:main.c        ****                         {
 319:main.c        ****                             angle = 225;
 320:main.c        ****                         }
 321:main.c        ****                         
 322:main.c        ****                     else if (y < -20000)
 323:main.c        ****                         {
 324:main.c        ****                             angle = 270;
 325:main.c        ****                         }
 326:main.c        ****                         
 327:main.c        ****                     else if (x > 20000) 
 328:main.c        ****                         {
 329:main.c        ****                             angle = 180;
 330:main.c        ****                         }
 331:main.c        ****                         
 332:main.c        ****                     print_mqtt("Zumo021/hit ", "%d %d", hittime, angle);  
 333:main.c        ****                 }    
 334:main.c        ****     }
 335:main.c        **** 
 336:main.c        **** void tank_turn_left(uint8 speed, uint32 delay)
 337:main.c        ****     {
 338:main.c        ****         MotorDirLeft_Write(1);      // set LeftMotor backward mode
 339:main.c        ****         MotorDirRight_Write(0);     // set RightMotor forward mode
 340:main.c        ****         PWM_WriteCompare1(speed);
 341:main.c        ****         PWM_WriteCompare2(speed);
 342:main.c        ****         vTaskDelay(delay);
 343:main.c        ****     }
 344:main.c        **** 
 345:main.c        **** void tank_turn_right(uint8 speed, uint32 delay)
 346:main.c        ****     {
 347:main.c        ****         MotorDirLeft_Write(0);      // set LeftMotor forward mode
 348:main.c        ****         MotorDirRight_Write(1);     // set RightMotor backward mode
 349:main.c        ****         PWM_WriteCompare1(speed); 
 350:main.c        ****         PWM_WriteCompare2(speed);
 351:main.c        ****         vTaskDelay(delay);
 352:main.c        ****     }
 353:main.c        ****     
 354:main.c        **** #endif
 355:main.c        **** 
 356:main.c        **** 
 357:main.c        **** #if 0
 358:main.c        **** 
 359:main.c        ****     // PROJECT // 2:LINE FOLLOWER //
 360:main.c        **** 
 361:main.c        **** int line;
 362:main.c        **** int onblack, onwhite, passed; 
 363:main.c        **** TickType_t starttime, finishtime, timepass;
 364:main.c        **** void sensors();
 365:main.c        **** void linecounter();
 366:main.c        **** void drive();
 367:main.c        **** void reveille();
 368:main.c        **** void darude();
 369:main.c        ****     
 370:main.c        **** void zmain(void)
 371:main.c        **** {
 372:main.c        ****     IR_Start();    
ARM GAS  C:\Users\8523~1\AppData\Local\Temp\ccJE8vL2.s 			page 8


 373:main.c        ****     IR_flush();
 374:main.c        ****     reflectance_start();
 375:main.c        ****     motor_start();
 376:main.c        **** 
 377:main.c        ****     while (SW1_Read() == 1);    // Wait for user button
 378:main.c        ****     
 379:main.c        ****     while (true)                // Drive to fisrt line
 380:main.c        ****         {
 381:main.c        ****             sensors();
 382:main.c        ****             drive();
 383:main.c        ****             
 384:main.c        ****             if (line == 0b111111)
 385:main.c        ****                 {
 386:main.c        ****                     motor_forward(0, 0);
 387:main.c        ****                     Beep(100, 100);
 388:main.c        ****                     passed ++;
 389:main.c        ****                     print_mqtt("Zumo021/ready ", "line");
 390:main.c        ****                     break;
 391:main.c        ****                 }
 392:main.c        ****                 
 393:main.c        ****             else motor_forward(100, 0);
 394:main.c        ****         }
 395:main.c        ****     
 396:main.c        ****     while(true)                 // Wait for IR signal
 397:main.c        ****     {
 398:main.c        ****         IR_wait();
 399:main.c        ****         
 400:main.c        ****         reveille();
 401:main.c        ****         
 402:main.c        ****         starttime = xTaskGetTickCount();      
 403:main.c        ****         print_mqtt("Zumo021/start ", "%d", starttime);
 404:main.c        ****         
 405:main.c        ****         motor_forward(100, 100);
 406:main.c        ****         
 407:main.c        ****         break; 
 408:main.c        ****     }
 409:main.c        ****     
 410:main.c        ****     while (true)                // Drive
 411:main.c        ****         {
 412:main.c        ****             sensors();
 413:main.c        ****             linecounter();
 414:main.c        ****             drive();
 415:main.c        ****             
 416:main.c        ****             if (passed == 2 && onblack == 1)
 417:main.c        ****                 {
 418:main.c        ****                     motor_forward(0, 0);
 419:main.c        ****                     
 420:main.c        ****                     finishtime = xTaskGetTickCount();
 421:main.c        ****                     
 422:main.c        ****                     print_mqtt("Zumo021/stop ", "%d", finishtime);
 423:main.c        ****                     
 424:main.c        ****                     timepass = finishtime - starttime;
 425:main.c        ****                     
 426:main.c        ****                     print_mqtt("Zumo021/time ", "%d", timepass);
 427:main.c        ****                     
 428:main.c        ****                     darude();
 429:main.c        ****                     
ARM GAS  C:\Users\8523~1\AppData\Local\Temp\ccJE8vL2.s 			page 9


 430:main.c        ****                     break;
 431:main.c        ****                 }
 432:main.c        ****         }
 433:main.c        ****         
 434:main.c        **** }
 435:main.c        ****     
 436:main.c        **** void sensors(void)
 437:main.c        ****     {
 438:main.c        ****         struct sensors_ dig;
 439:main.c        ****         
 440:main.c        ****         reflectance_set_threshold(15000, 15000, 15000, 15000, 15000, 15000);
 441:main.c        **** 
 442:main.c        ****         reflectance_digital(&dig);
 443:main.c        ****         
 444:main.c        ****         line = 32*dig.l3 + 16*dig.l2 + 8*dig.l1 + 4*dig.r1 + 2*dig.r2 + 1*dig.r3;
 445:main.c        ****     }    
 446:main.c        **** 
 447:main.c        **** void linecounter(void)
 448:main.c        ****     {
 449:main.c        ****         struct sensors_ dig;
 450:main.c        ****         
 451:main.c        ****         reflectance_set_threshold(15000, 15000, 15000, 15000, 15000, 15000);
 452:main.c        ****         
 453:main.c        ****         reflectance_digital(&dig);
 454:main.c        ****         
 455:main.c        ****         if (dig.l3 == 1 && dig.r3 == 1)
 456:main.c        ****             {
 457:main.c        ****                 onblack = 1;               
 458:main.c        ****             }
 459:main.c        ****         
 460:main.c        ****         if (dig.l3 == 0 && dig.r3 == 0)
 461:main.c        ****             {
 462:main.c        ****                 onwhite = 1;    
 463:main.c        ****             }      
 464:main.c        ****             
 465:main.c        ****         if (onblack == 1 && onwhite == 1)
 466:main.c        ****             {
 467:main.c        ****                 passed++;
 468:main.c        ****                 onblack = 0;
 469:main.c        ****             }
 470:main.c        ****             
 471:main.c        ****         else onwhite = 0;   
 472:main.c        ****     }
 473:main.c        ****     
 474:main.c        **** void drive(void)
 475:main.c        ****     { 
 476:main.c        ****         if (line == 0b001100)
 477:main.c        ****             {
 478:main.c        ****                 motor_turn(255, 240, 0);
 479:main.c        ****                 return;
 480:main.c        ****             }  
 481:main.c        ****             
 482:main.c        ****         if (line == 0b011000)
 483:main.c        ****             {
 484:main.c        ****                 motor_turn(0, 150, 0);
 485:main.c        ****                 return;
 486:main.c        ****             }   
ARM GAS  C:\Users\8523~1\AppData\Local\Temp\ccJE8vL2.s 			page 10


 487:main.c        ****             
 488:main.c        ****         if (line == 0b000110)
 489:main.c        ****             {
 490:main.c        ****                 motor_turn(150, 0, 0);
 491:main.c        ****                 return;
 492:main.c        ****             }   
 493:main.c        ****                     
 494:main.c        ****         if (line == 0b110000)
 495:main.c        ****             {
 496:main.c        ****                 motor_turn(0, 255, 0);
 497:main.c        ****                 return;
 498:main.c        ****             }   
 499:main.c        ****                         
 500:main.c        ****         if (line == 0b000011)
 501:main.c        ****             {
 502:main.c        ****                 motor_turn(255, 0, 0);
 503:main.c        ****                 return;
 504:main.c        ****             }
 505:main.c        ****     }
 506:main.c        ****     
 507:main.c        **** void reveille(void)
 508:main.c        ****     {
 509:main.c        ****         Beep(200, G1);
 510:main.c        ****         Beep(200, C1);
 511:main.c        ****         Beep(100, E1);
 512:main.c        ****         Beep(100, C1);
 513:main.c        ****         Beep(200, G1);
 514:main.c        ****         
 515:main.c        ****         Beep(200, E1);
 516:main.c        ****         Beep(200, C1);
 517:main.c        ****         Beep(100, E1);
 518:main.c        ****         Beep(100, C1);
 519:main.c        ****         Beep(200, G1);
 520:main.c        ****         
 521:main.c        ****         Beep(200, E1);
 522:main.c        ****         Beep(200, C1);
 523:main.c        ****         Beep(100, E1);
 524:main.c        ****         Beep(100, C1);
 525:main.c        ****         Beep(200, G1);
 526:main.c        ****         
 527:main.c        ****         Beep(200, C1);
 528:main.c        ****         Beep(400, E1);
 529:main.c        ****         Beep(200, C1);
 530:main.c        ****     }
 531:main.c        ****     
 532:main.c        **** void darude(void)
 533:main.c        ****     {
 534:main.c        ****         Beep(50, Gs2);
 535:main.c        ****         vTaskDelay(50);
 536:main.c        ****         Beep(50, Gs2);
 537:main.c        ****         vTaskDelay(50);
 538:main.c        ****         Beep(50, Gs2);
 539:main.c        ****         vTaskDelay(50);
 540:main.c        ****         Beep(50, Gs2);
 541:main.c        ****         vTaskDelay(50);
 542:main.c        ****         Beep(50, Gs2);
 543:main.c        ****         vTaskDelay(150);//
ARM GAS  C:\Users\8523~1\AppData\Local\Temp\ccJE8vL2.s 			page 11


 544:main.c        ****         
 545:main.c        ****         Beep(50, Gs2);
 546:main.c        ****         vTaskDelay(50);
 547:main.c        ****         Beep(50, Gs2);
 548:main.c        ****         vTaskDelay(50);
 549:main.c        ****         Beep(50, Gs2);
 550:main.c        ****         vTaskDelay(50);
 551:main.c        ****         Beep(50, Gs2);
 552:main.c        ****         vTaskDelay(50);
 553:main.c        ****         Beep(50, Gs2);
 554:main.c        ****         vTaskDelay(50);
 555:main.c        ****         Beep(50, Gs2);
 556:main.c        ****         vTaskDelay(50);
 557:main.c        ****         Beep(50, Gs2);
 558:main.c        ****         vTaskDelay(150);//
 559:main.c        ****         
 560:main.c        ****         Beep(50, Cs2);
 561:main.c        ****         vTaskDelay(50);
 562:main.c        ****         Beep(50, Cs2);
 563:main.c        ****         vTaskDelay(50);
 564:main.c        ****         Beep(50, Cs2);
 565:main.c        ****         vTaskDelay(50);
 566:main.c        ****         Beep(50, Cs2);
 567:main.c        ****         vTaskDelay(50);
 568:main.c        ****         Beep(50, Cs2);
 569:main.c        ****         vTaskDelay(50);
 570:main.c        ****         Beep(50, Cs2);
 571:main.c        ****         vTaskDelay(50);
 572:main.c        ****         Beep(50, Cs2);
 573:main.c        ****         vTaskDelay(150);//
 574:main.c        ****         
 575:main.c        ****         Beep(50, B2);
 576:main.c        ****         vTaskDelay(50);
 577:main.c        ****         Beep(50, B2);
 578:main.c        ****         vTaskDelay(50);
 579:main.c        ****         Beep(50, B2);
 580:main.c        ****         vTaskDelay(50);
 581:main.c        ****         Beep(50, B2);
 582:main.c        ****         vTaskDelay(50);
 583:main.c        ****         Beep(50, B2);
 584:main.c        ****         vTaskDelay(50);
 585:main.c        ****         Beep(50, B2);
 586:main.c        ****         vTaskDelay(50);
 587:main.c        ****         Beep(50, B2);
 588:main.c        ****         vTaskDelay(150);//
 589:main.c        ****         
 590:main.c        ****         Beep(50, Fs1);
 591:main.c        ****         vTaskDelay(50);
 592:main.c        ****         Beep(50, Fs1);
 593:main.c        ****         vTaskDelay(50);
 594:main.c        ****         Beep(50, Gs2);
 595:main.c        ****         vTaskDelay(50);
 596:main.c        ****         Beep(50, Gs2);
 597:main.c        ****         vTaskDelay(50);
 598:main.c        ****         Beep(50, Gs2);
 599:main.c        ****         vTaskDelay(50);
 600:main.c        ****         Beep(50, Gs2);
ARM GAS  C:\Users\8523~1\AppData\Local\Temp\ccJE8vL2.s 			page 12


 601:main.c        ****         vTaskDelay(50);
 602:main.c        ****         Beep(50, Gs2);
 603:main.c        ****         vTaskDelay(150);//
 604:main.c        ****         
 605:main.c        ****         Beep(50, Gs2);
 606:main.c        ****         vTaskDelay(50);
 607:main.c        ****         Beep(50, Gs2);
 608:main.c        ****         vTaskDelay(50);
 609:main.c        ****         Beep(50, Gs2);
 610:main.c        ****         vTaskDelay(50);
 611:main.c        ****         Beep(50, Gs2);
 612:main.c        ****         vTaskDelay(50);
 613:main.c        ****         Beep(50, Gs2);
 614:main.c        ****         vTaskDelay(50);
 615:main.c        ****         Beep(50, Gs2);
 616:main.c        ****         vTaskDelay(50);
 617:main.c        ****         Beep(50, Gs2);
 618:main.c        ****         vTaskDelay(150);//
 619:main.c        ****         
 620:main.c        ****         Beep(50, Cs2);
 621:main.c        ****         vTaskDelay(50);
 622:main.c        ****         Beep(50, Cs2);
 623:main.c        ****         vTaskDelay(50); //
 624:main.c        ****         
 625:main.c        ****         Beep(50, Gs2);
 626:main.c        ****         vTaskDelay(50);
 627:main.c        ****         Beep(50, Gs2);
 628:main.c        ****         vTaskDelay(50);
 629:main.c        ****         Beep(50, Gs2);
 630:main.c        ****         vTaskDelay(50);
 631:main.c        ****         Beep(50, Gs2);
 632:main.c        ****         vTaskDelay(50);
 633:main.c        ****         Beep(50, Gs2);
 634:main.c        ****         vTaskDelay(150);//
 635:main.c        ****         
 636:main.c        ****         Beep(50, Gs2);
 637:main.c        ****         vTaskDelay(50);
 638:main.c        ****         Beep(50, Gs2);
 639:main.c        ****         vTaskDelay(50);
 640:main.c        ****         Beep(50, Gs2);
 641:main.c        ****         vTaskDelay(50);
 642:main.c        ****         Beep(50, Gs2);
 643:main.c        ****         vTaskDelay(50);
 644:main.c        ****         Beep(50, Gs2);
 645:main.c        ****         vTaskDelay(50);
 646:main.c        ****         Beep(50, Gs2);
 647:main.c        ****         vTaskDelay(50);
 648:main.c        ****         Beep(50, Gs2);
 649:main.c        ****         vTaskDelay(150);//
 650:main.c        ****     }
 651:main.c        ****     
 652:main.c        **** #endif    
 653:main.c        **** 
 654:main.c        **** 
 655:main.c        **** #if 1
 656:main.c        **** 
 657:main.c        ****     // PROJECT // 3:MAZE //
ARM GAS  C:\Users\8523~1\AppData\Local\Temp\ccJE8vL2.s 			page 13


 658:main.c        ****    
 659:main.c        **** int line;
 660:main.c        **** int x, y = -1, distance, obstacle;
 661:main.c        **** int onblack, onwhite, online;
 662:main.c        **** TickType_t starttime, finishtime, timepass;
 663:main.c        **** char compass;
 664:main.c        **** void sensors();
 665:main.c        **** void linedetector();
 666:main.c        **** void coordinatecounter();
 667:main.c        **** void drive();
 668:main.c        **** void turn_left();
 669:main.c        **** void turn_right();
 670:main.c        **** void tank_turn_left(uint8, uint32);
 671:main.c        **** void tank_turn_right(uint8, uint32);
 672:main.c        **** void reveille();
 673:main.c        **** void champions();
 674:main.c        ****     
 675:main.c        **** void zmain(void)
 676:main.c        **** {
 677:main.c        ****     
 678:main.c        ****     IR_Start();    
 679:main.c        ****     IR_flush();
 680:main.c        ****     Ultra_Start();
 681:main.c        ****     reflectance_start();
 682:main.c        ****     motor_start();
 683:main.c        ****     
 684:main.c        ****     while (SW1_Read() == 1);    // Wait for user button
 685:main.c        ****     
 686:main.c        ****     compass = 'N';
 687:main.c        ****     
 688:main.c        ****     while (true)                // Drive to fisrt line
 689:main.c        ****         {
 690:main.c        ****             sensors();
 691:main.c        ****             drive();
 692:main.c        ****             
 693:main.c        ****             if(line == 0b111111)
 694:main.c        ****                 {
 695:main.c        ****                     motor_forward(0, 0);
 696:main.c        ****                     Beep(100, 100);
 697:main.c        ****                     print_mqtt("Zumo021/ready ", "maze");
 698:main.c        ****                     break;
 699:main.c        ****                 }
 700:main.c        ****         }
 701:main.c        ****         
 702:main.c        ****     while(true)                 // Wait for IR signal
 703:main.c        ****         {
 704:main.c        ****             IR_wait();
 705:main.c        ****             //reveille();
 706:main.c        ****             
 707:main.c        ****             starttime = xTaskGetTickCount();      
 708:main.c        ****             print_mqtt("Zumo021/start ", "%d", starttime);
 709:main.c        ****             
 710:main.c        ****             break;
 711:main.c        ****         }
 712:main.c        ****             
 713:main.c        ****     while (true)                // Drive
 714:main.c        ****     {
ARM GAS  C:\Users\8523~1\AppData\Local\Temp\ccJE8vL2.s 			page 14


 715:main.c        ****         sensors();
 716:main.c        ****         
 717:main.c        ****         linedetector();
 718:main.c        ****         
 719:main.c        ****         coordinatecounter();
 720:main.c        ****         
 721:main.c        ****         drive();
 722:main.c        ****         
 723:main.c        ****         if (line == 0b000000 && y == 13 && x == 0)
 724:main.c        ****             {
 725:main.c        ****                 motor_stop();
 726:main.c        ****                 
 727:main.c        ****                 print_mqtt("Zumo021/position ", "%d %d", x, y);
 728:main.c        ****                 
 729:main.c        ****                 finishtime = xTaskGetTickCount();
 730:main.c        ****                     
 731:main.c        ****                 print_mqtt("Zumo021/stop ", "%d", finishtime);
 732:main.c        ****                 
 733:main.c        ****                 timepass = finishtime - starttime;
 734:main.c        ****                 
 735:main.c        ****                 print_mqtt("Zumo021/time ", "%d", timepass);
 736:main.c        ****                 
 737:main.c        ****                 //champions();
 738:main.c        ****                 break;
 739:main.c        ****             }
 740:main.c        ****     }
 741:main.c        **** }
 742:main.c        **** 
 743:main.c        **** void sensors(void)
 744:main.c        ****     {
  28              		.loc 1 744 0
  29              		.cfi_startproc
  30              		@ args = 0, pretend = 0, frame = 16
  31              		@ frame_needed = 0, uses_anonymous_args = 0
  32 0000 00B5     		push	{lr}
  33              		.cfi_def_cfa_offset 4
  34              		.cfi_offset 14, -4
  35 0002 87B0     		sub	sp, sp, #28
  36              		.cfi_def_cfa_offset 32
 745:main.c        ****         struct sensors_ dig;
 746:main.c        ****         
 747:main.c        ****         reflectance_set_threshold(15000, 15000, 15000, 15000, 15000, 15000);
  37              		.loc 1 747 0
  38 0004 43F69820 		movw	r0, #15000
  39 0008 0190     		str	r0, [sp, #4]
  40 000a 0090     		str	r0, [sp]
  41 000c 0346     		mov	r3, r0
  42 000e 0246     		mov	r2, r0
  43 0010 0146     		mov	r1, r0
  44 0012 FFF7FEFF 		bl	reflectance_set_threshold
  45              	.LVL0:
 748:main.c        **** 
 749:main.c        ****         reflectance_digital(&dig);
  46              		.loc 1 749 0
  47 0016 03A8     		add	r0, sp, #12
  48 0018 FFF7FEFF 		bl	reflectance_digital
  49              	.LVL1:
ARM GAS  C:\Users\8523~1\AppData\Local\Temp\ccJE8vL2.s 			page 15


 750:main.c        **** 
 751:main.c        ****         line = 32*dig.l3 + 16*dig.l2 + 8*dig.l1 + 4*dig.r1 + 2*dig.r2 + 1*dig.r3;   // set lin valu
  50              		.loc 1 751 0
  51 001c BDF80C20 		ldrh	r2, [sp, #12]
  52 0020 BDF80E30 		ldrh	r3, [sp, #14]
  53 0024 03EB4203 		add	r3, r3, r2, lsl #1
  54 0028 BDF81020 		ldrh	r2, [sp, #16]
  55 002c 02EB4303 		add	r3, r2, r3, lsl #1
  56 0030 BDF81210 		ldrh	r1, [sp, #18]
  57 0034 01EB4303 		add	r3, r1, r3, lsl #1
  58 0038 BDF81420 		ldrh	r2, [sp, #20]
  59 003c 02EB4302 		add	r2, r2, r3, lsl #1
  60 0040 BDF81630 		ldrh	r3, [sp, #22]
  61 0044 03EB4203 		add	r3, r3, r2, lsl #1
  62 0048 084A     		ldr	r2, .L5
  63 004a 1360     		str	r3, [r2]
 752:main.c        ****       
 753:main.c        ****         distance = Ultra_GetDistance(); // set distance value
  64              		.loc 1 753 0
  65 004c FFF7FEFF 		bl	Ultra_GetDistance
  66              	.LVL2:
  67 0050 074B     		ldr	r3, .L5+4
  68 0052 1860     		str	r0, [r3]
 754:main.c        ****                 
 755:main.c        ****         if (distance < 15)
  69              		.loc 1 755 0
  70 0054 0E28     		cmp	r0, #14
  71 0056 03DC     		bgt	.L2
 756:main.c        ****             {
 757:main.c        ****                 obstacle = 1;
  72              		.loc 1 757 0
  73 0058 0122     		movs	r2, #1
  74 005a 064B     		ldr	r3, .L5+8
  75 005c 1A60     		str	r2, [r3]
  76 005e 02E0     		b	.L1
  77              	.L2:
 758:main.c        ****             }
 759:main.c        ****             
 760:main.c        ****         else obstacle = 0;    
  78              		.loc 1 760 0
  79 0060 0022     		movs	r2, #0
  80 0062 044B     		ldr	r3, .L5+8
  81 0064 1A60     		str	r2, [r3]
  82              	.L1:
 761:main.c        ****             
 762:main.c        ****     }
  83              		.loc 1 762 0
  84 0066 07B0     		add	sp, sp, #28
  85              		.cfi_def_cfa_offset 4
  86              		@ sp needed
  87 0068 5DF804FB 		ldr	pc, [sp], #4
  88              	.L6:
  89              		.align	2
  90              	.L5:
  91 006c 00000000 		.word	line
  92 0070 00000000 		.word	distance
  93 0074 00000000 		.word	obstacle
ARM GAS  C:\Users\8523~1\AppData\Local\Temp\ccJE8vL2.s 			page 16


  94              		.cfi_endproc
  95              	.LFE86:
  96              		.size	sensors, .-sensors
  97              		.section	.text.linedetector,"ax",%progbits
  98              		.align	2
  99              		.global	linedetector
 100              		.thumb
 101              		.thumb_func
 102              		.type	linedetector, %function
 103              	linedetector:
 104              	.LFB87:
 763:main.c        ****     
 764:main.c        **** void linedetector(void)
 765:main.c        ****     {
 105              		.loc 1 765 0
 106              		.cfi_startproc
 107              		@ args = 0, pretend = 0, frame = 0
 108              		@ frame_needed = 0, uses_anonymous_args = 0
 109 0000 08B5     		push	{r3, lr}
 110              		.cfi_def_cfa_offset 8
 111              		.cfi_offset 3, -8
 112              		.cfi_offset 14, -4
 766:main.c        ****         
 767:main.c        ****         if (line == 0b001100 || line == 0b011000 || line == 0b000110)
 113              		.loc 1 767 0
 114 0002 1C4B     		ldr	r3, .L14
 115 0004 1B68     		ldr	r3, [r3]
 116 0006 0C2B     		cmp	r3, #12
 117 0008 03D0     		beq	.L8
 118              		.loc 1 767 0 is_stmt 0 discriminator 1
 119 000a 182B     		cmp	r3, #24
 120 000c 01D0     		beq	.L8
 121              		.loc 1 767 0 discriminator 2
 122 000e 062B     		cmp	r3, #6
 123 0010 05D1     		bne	.L9
 124              	.L8:
 768:main.c        ****             {
 769:main.c        ****                 onwhite = 1;
 125              		.loc 1 769 0 is_stmt 1
 126 0012 0121     		movs	r1, #1
 127 0014 184A     		ldr	r2, .L14+4
 128 0016 1160     		str	r1, [r2]
 770:main.c        ****                 onblack = 0;
 129              		.loc 1 770 0
 130 0018 0021     		movs	r1, #0
 131 001a 184A     		ldr	r2, .L14+8
 132 001c 1160     		str	r1, [r2]
 133              	.L9:
 771:main.c        ****             }      
 772:main.c        **** 
 773:main.c        ****         if (line == 0b111111 || line == 0b011111 || line == 0b111110 || line == 0b001111 || line ==
 134              		.loc 1 773 0
 135 001e 3F2B     		cmp	r3, #63
 136 0020 0BD0     		beq	.L10
 137              		.loc 1 773 0 is_stmt 0 discriminator 1
 138 0022 1F2B     		cmp	r3, #31
 139 0024 09D0     		beq	.L10
ARM GAS  C:\Users\8523~1\AppData\Local\Temp\ccJE8vL2.s 			page 17


 140              		.loc 1 773 0 discriminator 2
 141 0026 3E2B     		cmp	r3, #62
 142 0028 07D0     		beq	.L10
 143              		.loc 1 773 0 discriminator 3
 144 002a 0F2B     		cmp	r3, #15
 145 002c 05D0     		beq	.L10
 146              		.loc 1 773 0 discriminator 4
 147 002e 3C2B     		cmp	r3, #60
 148 0030 03D0     		beq	.L10
 149              		.loc 1 773 0 discriminator 5
 150 0032 072B     		cmp	r3, #7
 151 0034 01D0     		beq	.L10
 152              		.loc 1 773 0 discriminator 6
 153 0036 382B     		cmp	r3, #56
 154 0038 02D1     		bne	.L11
 155              	.L10:
 774:main.c        ****             {
 775:main.c        ****                 onblack = 1;
 156              		.loc 1 775 0 is_stmt 1
 157 003a 0122     		movs	r2, #1
 158 003c 0F4B     		ldr	r3, .L14+8
 159 003e 1A60     		str	r2, [r3]
 160              	.L11:
 776:main.c        ****             }
 777:main.c        ****     
 778:main.c        ****         if (onwhite == 1 && onblack == 1)
 161              		.loc 1 778 0
 162 0040 0D4B     		ldr	r3, .L14+4
 163 0042 1B68     		ldr	r3, [r3]
 164 0044 012B     		cmp	r3, #1
 165 0046 13D1     		bne	.L7
 166              		.loc 1 778 0 is_stmt 0 discriminator 1
 167 0048 0C4B     		ldr	r3, .L14+8
 168 004a 1B68     		ldr	r3, [r3]
 169 004c 012B     		cmp	r3, #1
 170 004e 0FD1     		bne	.L7
 779:main.c        ****             {
 780:main.c        ****                 online = 1;
 171              		.loc 1 780 0 is_stmt 1
 172 0050 0122     		movs	r2, #1
 173 0052 0B4B     		ldr	r3, .L14+12
 174 0054 1A60     		str	r2, [r3]
 781:main.c        ****                 onwhite = 0;
 175              		.loc 1 781 0
 176 0056 0023     		movs	r3, #0
 177 0058 074A     		ldr	r2, .L14+4
 178 005a 1360     		str	r3, [r2]
 782:main.c        ****                 onblack = 0;
 179              		.loc 1 782 0
 180 005c 074A     		ldr	r2, .L14+8
 181 005e 1360     		str	r3, [r2]
 783:main.c        ****                 print_mqtt("Zumo021/position ", "%d %d", x, y);
 182              		.loc 1 783 0
 183 0060 084B     		ldr	r3, .L14+16
 184 0062 1B68     		ldr	r3, [r3]
 185 0064 084A     		ldr	r2, .L14+20
 186 0066 1268     		ldr	r2, [r2]
ARM GAS  C:\Users\8523~1\AppData\Local\Temp\ccJE8vL2.s 			page 18


 187 0068 0849     		ldr	r1, .L14+24
 188 006a 0948     		ldr	r0, .L14+28
 189 006c FFF7FEFF 		bl	print_mqtt
 190              	.LVL3:
 191              	.L7:
 192 0070 08BD     		pop	{r3, pc}
 193              	.L15:
 194 0072 00BF     		.align	2
 195              	.L14:
 196 0074 00000000 		.word	line
 197 0078 00000000 		.word	onwhite
 198 007c 00000000 		.word	onblack
 199 0080 00000000 		.word	online
 200 0084 00000000 		.word	.LANCHOR0
 201 0088 00000000 		.word	x
 202 008c 00000000 		.word	.LC0
 203 0090 08000000 		.word	.LC1
 204              		.cfi_endproc
 205              	.LFE87:
 206              		.size	linedetector, .-linedetector
 207              		.section	.text.coordinatecounter,"ax",%progbits
 208              		.align	2
 209              		.global	coordinatecounter
 210              		.thumb
 211              		.thumb_func
 212              		.type	coordinatecounter, %function
 213              	coordinatecounter:
 214              	.LFB88:
 784:main.c        ****             }        
 785:main.c        ****     }
 786:main.c        ****     
 787:main.c        **** void coordinatecounter(void)
 788:main.c        ****     {
 215              		.loc 1 788 0
 216              		.cfi_startproc
 217              		@ args = 0, pretend = 0, frame = 0
 218              		@ frame_needed = 0, uses_anonymous_args = 0
 219              		@ link register save eliminated.
 789:main.c        ****         if (online == 1 && compass == 'N')
 220              		.loc 1 789 0
 221 0000 174B     		ldr	r3, .L20
 222 0002 1B68     		ldr	r3, [r3]
 223 0004 012B     		cmp	r3, #1
 224 0006 0CD1     		bne	.L17
 225              		.loc 1 789 0 is_stmt 0 discriminator 1
 226 0008 164B     		ldr	r3, .L20+4
 227 000a 1B78     		ldrb	r3, [r3]	@ zero_extendqisi2
 228 000c 4E2B     		cmp	r3, #78
 229 000e 08D1     		bne	.L17
 790:main.c        ****             {
 791:main.c        ****                 y++;
 230              		.loc 1 791 0 is_stmt 1
 231 0010 154A     		ldr	r2, .L20+8
 232 0012 1368     		ldr	r3, [r2]
 233 0014 0133     		adds	r3, r3, #1
 234 0016 1360     		str	r3, [r2]
 792:main.c        ****                 online = 0;
ARM GAS  C:\Users\8523~1\AppData\Local\Temp\ccJE8vL2.s 			page 19


 235              		.loc 1 792 0
 236 0018 0023     		movs	r3, #0
 237 001a 114A     		ldr	r2, .L20
 238 001c 1360     		str	r3, [r2]
 793:main.c        ****                 onblack = 0;
 239              		.loc 1 793 0
 240 001e 134A     		ldr	r2, .L20+12
 241 0020 1360     		str	r3, [r2]
 242              	.L17:
 794:main.c        ****                 //Beep(50,250);
 795:main.c        ****             }
 796:main.c        ****             
 797:main.c        ****         if (online == 1 && compass == 'W')
 243              		.loc 1 797 0
 244 0022 0F4B     		ldr	r3, .L20
 245 0024 1B68     		ldr	r3, [r3]
 246 0026 012B     		cmp	r3, #1
 247 0028 0AD1     		bne	.L18
 248              		.loc 1 797 0 is_stmt 0 discriminator 1
 249 002a 0E4B     		ldr	r3, .L20+4
 250 002c 1B78     		ldrb	r3, [r3]	@ zero_extendqisi2
 251 002e 572B     		cmp	r3, #87
 252 0030 06D1     		bne	.L18
 798:main.c        ****             {
 799:main.c        ****                 x--;
 253              		.loc 1 799 0 is_stmt 1
 254 0032 0F4A     		ldr	r2, .L20+16
 255 0034 1368     		ldr	r3, [r2]
 256 0036 013B     		subs	r3, r3, #1
 257 0038 1360     		str	r3, [r2]
 800:main.c        ****                 online = 0;
 258              		.loc 1 800 0
 259 003a 0022     		movs	r2, #0
 260 003c 084B     		ldr	r3, .L20
 261 003e 1A60     		str	r2, [r3]
 262              	.L18:
 801:main.c        ****                 //Beep(50,100);
 802:main.c        ****             }
 803:main.c        ****             
 804:main.c        ****         if (online == 1 && compass == 'E')
 263              		.loc 1 804 0
 264 0040 074B     		ldr	r3, .L20
 265 0042 1B68     		ldr	r3, [r3]
 266 0044 012B     		cmp	r3, #1
 267 0046 0AD1     		bne	.L16
 268              		.loc 1 804 0 is_stmt 0 discriminator 1
 269 0048 064B     		ldr	r3, .L20+4
 270 004a 1B78     		ldrb	r3, [r3]	@ zero_extendqisi2
 271 004c 452B     		cmp	r3, #69
 272 004e 06D1     		bne	.L16
 805:main.c        ****             {
 806:main.c        ****                 x++;
 273              		.loc 1 806 0 is_stmt 1
 274 0050 074A     		ldr	r2, .L20+16
 275 0052 1368     		ldr	r3, [r2]
 276 0054 0133     		adds	r3, r3, #1
 277 0056 1360     		str	r3, [r2]
ARM GAS  C:\Users\8523~1\AppData\Local\Temp\ccJE8vL2.s 			page 20


 807:main.c        ****                 online = 0;
 278              		.loc 1 807 0
 279 0058 0022     		movs	r2, #0
 280 005a 014B     		ldr	r3, .L20
 281 005c 1A60     		str	r2, [r3]
 282              	.L16:
 283 005e 7047     		bx	lr
 284              	.L21:
 285              		.align	2
 286              	.L20:
 287 0060 00000000 		.word	online
 288 0064 00000000 		.word	compass
 289 0068 00000000 		.word	.LANCHOR0
 290 006c 00000000 		.word	onblack
 291 0070 00000000 		.word	x
 292              		.cfi_endproc
 293              	.LFE88:
 294              		.size	coordinatecounter, .-coordinatecounter
 295              		.section	.text.tank_turn_left,"ax",%progbits
 296              		.align	2
 297              		.global	tank_turn_left
 298              		.thumb
 299              		.thumb_func
 300              		.type	tank_turn_left, %function
 301              	tank_turn_left:
 302              	.LFB92:
 808:main.c        ****                 //Beep(50,50);
 809:main.c        ****                 //Beep(50,150);
 810:main.c        ****             }    
 811:main.c        ****     }
 812:main.c        ****     
 813:main.c        **** void drive(void)
 814:main.c        ****     {
 815:main.c        ****         
 816:main.c        ****         if (line == 0b001100)
 817:main.c        ****             {
 818:main.c        ****                 motor_forward(75, 0);
 819:main.c        ****                 return;
 820:main.c        ****             }  
 821:main.c        ****             
 822:main.c        ****         if (line == 0b011000)
 823:main.c        ****             {
 824:main.c        ****                 motor_turn(0, 100, 0);
 825:main.c        ****                 return;  
 826:main.c        ****             }   
 827:main.c        ****             
 828:main.c        ****         if (line == 0b000110)
 829:main.c        ****             {
 830:main.c        ****                 motor_turn(100, 0, 0);
 831:main.c        ****                 return;
 832:main.c        ****             }   
 833:main.c        ****                     
 834:main.c        ****         if (line == 0b110000 || line == 0b010000)
 835:main.c        ****             {
 836:main.c        ****                 motor_turn(0, 150, 0);
 837:main.c        ****                 return;
 838:main.c        ****             }   
ARM GAS  C:\Users\8523~1\AppData\Local\Temp\ccJE8vL2.s 			page 21


 839:main.c        ****                         
 840:main.c        ****         if (line == 0b000011 || line == 0b000010)
 841:main.c        ****             {
 842:main.c        ****                 motor_turn(150, 0, 0);
 843:main.c        ****                 return;
 844:main.c        ****             }
 845:main.c        ****                             
 846:main.c        ****         if (line == 0b111111 && obstacle == 1 && compass == 'N')    // turn if north and obstackle!
 847:main.c        ****             {
 848:main.c        ****                 if (x >= 0)
 849:main.c        ****                     {
 850:main.c        ****                         vTaskDelay(250);
 851:main.c        ****                     
 852:main.c        ****                         turn_left();
 853:main.c        ****                         
 854:main.c        ****                         compass = 'W';
 855:main.c        ****                                             
 856:main.c        ****                         if (obstacle == 1)  // check corner
 857:main.c        ****                             {
 858:main.c        ****                                 turn_right();
 859:main.c        ****                                 turn_right();
 860:main.c        ****                                 compass = 'E';    
 861:main.c        ****                             }
 862:main.c        ****                     }
 863:main.c        ****                     
 864:main.c        ****                     else if (x < 0)
 865:main.c        ****                         {
 866:main.c        ****                             vTaskDelay(250);
 867:main.c        ****                             
 868:main.c        ****                             turn_right();
 869:main.c        ****                                 
 870:main.c        ****                             compass = 'E';
 871:main.c        ****                                                     
 872:main.c        ****                                 if (obstacle == 1)  // check corner
 873:main.c        ****                                     {
 874:main.c        ****                                         turn_left();
 875:main.c        ****                                         turn_left();
 876:main.c        ****                                         compass = 'W';    
 877:main.c        ****                                     }      
 878:main.c        ****                         }
 879:main.c        ****                 
 880:main.c        ****                 return;    
 881:main.c        ****             }  
 882:main.c        ****                                     
 883:main.c        ****         if (line == 0b111111 && obstacle == 0 && compass == 'W' && x != -3)   // turn right if west
 884:main.c        ****             {
 885:main.c        ****                 vTaskDelay(250);
 886:main.c        ****                                                         
 887:main.c        ****                 turn_right();
 888:main.c        ****                     
 889:main.c        ****                 compass = 'N';
 890:main.c        ****                                         
 891:main.c        ****                 if (obstacle == 1)  // check corner
 892:main.c        ****                     {
 893:main.c        ****                         turn_left();                         
 894:main.c        ****                         compass = 'W';
 895:main.c        ****                     }
ARM GAS  C:\Users\8523~1\AppData\Local\Temp\ccJE8vL2.s 			page 22


 896:main.c        ****                     
 897:main.c        ****                 return;
 898:main.c        ****             }
 899:main.c        ****             
 900:main.c        ****         if ((line == 0b111111 && obstacle == 1 && compass == 'W') || (line == 0b111111 && x == -3 &
 901:main.c        ****             {
 902:main.c        ****                 vTaskDelay(250);
 903:main.c        ****                                                         
 904:main.c        ****                 turn_right();
 905:main.c        ****                                            
 906:main.c        ****                 compass = 'N';
 907:main.c        ****                     
 908:main.c        ****                 if (obstacle == 1)  // check corner
 909:main.c        ****                     {
 910:main.c        ****                         turn_right();                     
 911:main.c        ****                         compass = 'E';
 912:main.c        ****                     }
 913:main.c        ****                     
 914:main.c        ****                     return;
 915:main.c        ****             }
 916:main.c        ****             
 917:main.c        ****         if (line == 0b111111 && obstacle == 0 && compass == 'E' && x != 3)    // turn left if east 
 918:main.c        ****             {
 919:main.c        ****                 vTaskDelay(250);
 920:main.c        ****                                                         
 921:main.c        ****                 turn_left();
 922:main.c        ****                                            
 923:main.c        ****                 compass = 'N';
 924:main.c        ****                     
 925:main.c        ****                 if (obstacle == 1)  // check corner
 926:main.c        ****                     {
 927:main.c        ****                         turn_right();                    
 928:main.c        ****                         compass = 'E';
 929:main.c        ****                     }
 930:main.c        ****                     
 931:main.c        ****                 return;
 932:main.c        ****             }
 933:main.c        ****             
 934:main.c        ****         if ((line == 0b111111 && obstacle == 1 && compass == 'E') || (line == 0b111111 && x == 3 &&
 935:main.c        ****             {
 936:main.c        ****                 vTaskDelay(250);
 937:main.c        ****                                                         
 938:main.c        ****                 turn_left();
 939:main.c        ****                                            
 940:main.c        ****                 compass = 'N';
 941:main.c        ****                     
 942:main.c        ****                 if (obstacle == 1)  // check corner
 943:main.c        ****                     {
 944:main.c        ****                         turn_left();                   
 945:main.c        ****                         compass = 'W';
 946:main.c        ****                     }
 947:main.c        ****                     
 948:main.c        ****                 return;
 949:main.c        ****             }
 950:main.c        ****            
 951:main.c        ****         if ((line == 0b011111 || line == 0b111110 || line == 0b001111 || line == 0b111100 || line =
 952:main.c        ****             {
ARM GAS  C:\Users\8523~1\AppData\Local\Temp\ccJE8vL2.s 			page 23


 953:main.c        ****                 vTaskDelay(50);
 954:main.c        ****                         
 955:main.c        ****                     sensors();
 956:main.c        ****                     
 957:main.c        ****                     coordinatecounter();
 958:main.c        ****                     
 959:main.c        ****                     linedetector();
 960:main.c        ****                     
 961:main.c        ****                     if (line == 0b011111 || line == 0b111110 || line == 0b001111 || line == 0b11110
 962:main.c        ****                         {
 963:main.c        ****                             if (x < 0)
 964:main.c        ****                                 {
 965:main.c        ****                                     vTaskDelay(200);
 966:main.c        ****                                     turn_right();
 967:main.c        ****                                 
 968:main.c        ****                                     compass = 'E';  
 969:main.c        ****                                 }
 970:main.c        ****                                 
 971:main.c        ****                                 else if (x > 0)
 972:main.c        ****                                     {
 973:main.c        ****                                         vTaskDelay(200);
 974:main.c        ****                                         turn_left();
 975:main.c        ****                                     
 976:main.c        ****                                         compass = 'W';  
 977:main.c        ****                                     }
 978:main.c        ****                         } 
 979:main.c        ****             return;            
 980:main.c        ****             
 981:main.c        ****             }
 982:main.c        ****             
 983:main.c        ****         if ((line == 0b011111 || line == 0b111110 || line == 0b001111 || line == 0b111100 || line =
 984:main.c        ****             {
 985:main.c        ****                 vTaskDelay(50);
 986:main.c        ****                         
 987:main.c        ****                     sensors();
 988:main.c        ****                     
 989:main.c        ****                     coordinatecounter();
 990:main.c        ****                     
 991:main.c        ****                     linedetector();
 992:main.c        ****                     
 993:main.c        ****                     if (line == 0b011111 || line == 0b111110 || line == 0b001111 || line == 0b11110
 994:main.c        ****                         {
 995:main.c        ****                             sensors();
 996:main.c        ****                     
 997:main.c        ****                             coordinatecounter();
 998:main.c        ****                             
 999:main.c        ****                             linedetector();
1000:main.c        ****                             
1001:main.c        ****                             if (x < 0)
1002:main.c        ****                                 {
1003:main.c        ****                                     vTaskDelay(200);
1004:main.c        ****                                     turn_right();
1005:main.c        ****                                 
1006:main.c        ****                                     compass = 'E';  
1007:main.c        ****                                 }
1008:main.c        ****                                 
1009:main.c        ****                                 else if (x > 0)
ARM GAS  C:\Users\8523~1\AppData\Local\Temp\ccJE8vL2.s 			page 24


1010:main.c        ****                                     {
1011:main.c        ****                                         vTaskDelay(200);
1012:main.c        ****                                         turn_left();
1013:main.c        ****                                     
1014:main.c        ****                                         compass = 'W';  
1015:main.c        ****                                     }
1016:main.c        ****                         } 
1017:main.c        ****             return;    
1018:main.c        ****             }
1019:main.c        ****              
1020:main.c        ****         else motor_forward(75, 0);
1021:main.c        ****     }
1022:main.c        **** 
1023:main.c        **** void turn_left(void)
1024:main.c        ****     {           
1025:main.c        ****         tank_turn_left(100, 200);
1026:main.c        ****         motor_forward(0, 0);
1027:main.c        ****         
1028:main.c        ****         for (int i = 0; 1 < 1000; i++)   //auto tune
1029:main.c        ****             {
1030:main.c        ****                 sensors();
1031:main.c        ****                 
1032:main.c        ****                 tank_turn_left(100, 0);
1033:main.c        ****                 
1034:main.c        ****                 if (line == 0b001100)
1035:main.c        ****                     {
1036:main.c        ****                         break;
1037:main.c        ****                     }
1038:main.c        ****             }    
1039:main.c        ****     }
1040:main.c        ****     
1041:main.c        **** void turn_right(void)
1042:main.c        ****     {
1043:main.c        ****         tank_turn_right(100, 200);
1044:main.c        ****         motor_forward(0, 0);
1045:main.c        ****         
1046:main.c        ****         for(int i = 0; 1 < 1000; i++)   // auto tune
1047:main.c        ****             {
1048:main.c        ****                 sensors();
1049:main.c        ****                 
1050:main.c        ****                 tank_turn_right(100, 0);
1051:main.c        ****                 
1052:main.c        ****                 if (line == 0b001100)
1053:main.c        ****                     {
1054:main.c        ****                         break;
1055:main.c        ****                     }  
1056:main.c        ****             }
1057:main.c        ****     }
1058:main.c        ****  
1059:main.c        **** void tank_turn_left(uint8 speed, uint32 delay)
1060:main.c        ****     {
 303              		.loc 1 1060 0
 304              		.cfi_startproc
 305              		@ args = 0, pretend = 0, frame = 0
 306              		@ frame_needed = 0, uses_anonymous_args = 0
 307              	.LVL4:
 308 0000 38B5     		push	{r3, r4, r5, lr}
ARM GAS  C:\Users\8523~1\AppData\Local\Temp\ccJE8vL2.s 			page 25


 309              		.cfi_def_cfa_offset 16
 310              		.cfi_offset 3, -16
 311              		.cfi_offset 4, -12
 312              		.cfi_offset 5, -8
 313              		.cfi_offset 14, -4
 314 0002 0446     		mov	r4, r0
 315 0004 0D46     		mov	r5, r1
1061:main.c        ****         MotorDirLeft_Write(1);      // set LeftMotor backward mode
 316              		.loc 1 1061 0
 317 0006 0120     		movs	r0, #1
 318              	.LVL5:
 319 0008 FFF7FEFF 		bl	MotorDirLeft_Write
 320              	.LVL6:
1062:main.c        ****         MotorDirRight_Write(0);     // set RightMotor forward mode
 321              		.loc 1 1062 0
 322 000c 0020     		movs	r0, #0
 323 000e FFF7FEFF 		bl	MotorDirRight_Write
 324              	.LVL7:
1063:main.c        ****         PWM_WriteCompare1(speed);
 325              		.loc 1 1063 0
 326 0012 2046     		mov	r0, r4
 327 0014 FFF7FEFF 		bl	PWM_WriteCompare1
 328              	.LVL8:
1064:main.c        ****         PWM_WriteCompare2(speed);
 329              		.loc 1 1064 0
 330 0018 2046     		mov	r0, r4
 331 001a FFF7FEFF 		bl	PWM_WriteCompare2
 332              	.LVL9:
1065:main.c        ****         vTaskDelay(delay);
 333              		.loc 1 1065 0
 334 001e 2846     		mov	r0, r5
 335 0020 FFF7FEFF 		bl	vTaskDelay
 336              	.LVL10:
 337 0024 38BD     		pop	{r3, r4, r5, pc}
 338              		.cfi_endproc
 339              	.LFE92:
 340              		.size	tank_turn_left, .-tank_turn_left
 341 0026 00BF     		.section	.text.turn_left,"ax",%progbits
 342              		.align	2
 343              		.global	turn_left
 344              		.thumb
 345              		.thumb_func
 346              		.type	turn_left, %function
 347              	turn_left:
 348              	.LFB90:
1024:main.c        ****         tank_turn_left(100, 200);
 349              		.loc 1 1024 0
 350              		.cfi_startproc
 351              		@ args = 0, pretend = 0, frame = 0
 352              		@ frame_needed = 0, uses_anonymous_args = 0
 353 0000 08B5     		push	{r3, lr}
 354              		.cfi_def_cfa_offset 8
 355              		.cfi_offset 3, -8
 356              		.cfi_offset 14, -4
1025:main.c        ****         motor_forward(0, 0);
 357              		.loc 1 1025 0
 358 0002 C821     		movs	r1, #200
ARM GAS  C:\Users\8523~1\AppData\Local\Temp\ccJE8vL2.s 			page 26


 359 0004 6420     		movs	r0, #100
 360 0006 FFF7FEFF 		bl	tank_turn_left
 361              	.LVL11:
1026:main.c        ****         
 362              		.loc 1 1026 0
 363 000a 0021     		movs	r1, #0
 364 000c 0846     		mov	r0, r1
 365 000e FFF7FEFF 		bl	motor_forward
 366              	.LVL12:
 367              	.L25:
 368              	.LBB2:
1030:main.c        ****                 
 369              		.loc 1 1030 0
 370 0012 FFF7FEFF 		bl	sensors
 371              	.LVL13:
1032:main.c        ****                 
 372              		.loc 1 1032 0
 373 0016 0021     		movs	r1, #0
 374 0018 6420     		movs	r0, #100
 375 001a FFF7FEFF 		bl	tank_turn_left
 376              	.LVL14:
1034:main.c        ****                     {
 377              		.loc 1 1034 0
 378 001e 024B     		ldr	r3, .L27
 379 0020 1B68     		ldr	r3, [r3]
 380 0022 0C2B     		cmp	r3, #12
 381 0024 F5D1     		bne	.L25
 382              	.LBE2:
1039:main.c        ****     
 383              		.loc 1 1039 0
 384 0026 08BD     		pop	{r3, pc}
 385              	.L28:
 386              		.align	2
 387              	.L27:
 388 0028 00000000 		.word	line
 389              		.cfi_endproc
 390              	.LFE90:
 391              		.size	turn_left, .-turn_left
 392              		.section	.text.tank_turn_right,"ax",%progbits
 393              		.align	2
 394              		.global	tank_turn_right
 395              		.thumb
 396              		.thumb_func
 397              		.type	tank_turn_right, %function
 398              	tank_turn_right:
 399              	.LFB93:
1066:main.c        ****     }
1067:main.c        **** 
1068:main.c        **** void tank_turn_right(uint8 speed, uint32 delay)
1069:main.c        ****     {
 400              		.loc 1 1069 0
 401              		.cfi_startproc
 402              		@ args = 0, pretend = 0, frame = 0
 403              		@ frame_needed = 0, uses_anonymous_args = 0
 404              	.LVL15:
 405 0000 38B5     		push	{r3, r4, r5, lr}
 406              		.cfi_def_cfa_offset 16
ARM GAS  C:\Users\8523~1\AppData\Local\Temp\ccJE8vL2.s 			page 27


 407              		.cfi_offset 3, -16
 408              		.cfi_offset 4, -12
 409              		.cfi_offset 5, -8
 410              		.cfi_offset 14, -4
 411 0002 0446     		mov	r4, r0
 412 0004 0D46     		mov	r5, r1
1070:main.c        ****         MotorDirLeft_Write(0);      // set LeftMotor forward mode
 413              		.loc 1 1070 0
 414 0006 0020     		movs	r0, #0
 415              	.LVL16:
 416 0008 FFF7FEFF 		bl	MotorDirLeft_Write
 417              	.LVL17:
1071:main.c        ****         MotorDirRight_Write(1);     // set RightMotor backward mode
 418              		.loc 1 1071 0
 419 000c 0120     		movs	r0, #1
 420 000e FFF7FEFF 		bl	MotorDirRight_Write
 421              	.LVL18:
1072:main.c        ****         PWM_WriteCompare1(speed); 
 422              		.loc 1 1072 0
 423 0012 2046     		mov	r0, r4
 424 0014 FFF7FEFF 		bl	PWM_WriteCompare1
 425              	.LVL19:
1073:main.c        ****         PWM_WriteCompare2(speed);
 426              		.loc 1 1073 0
 427 0018 2046     		mov	r0, r4
 428 001a FFF7FEFF 		bl	PWM_WriteCompare2
 429              	.LVL20:
1074:main.c        ****         vTaskDelay(delay);
 430              		.loc 1 1074 0
 431 001e 2846     		mov	r0, r5
 432 0020 FFF7FEFF 		bl	vTaskDelay
 433              	.LVL21:
 434 0024 38BD     		pop	{r3, r4, r5, pc}
 435              		.cfi_endproc
 436              	.LFE93:
 437              		.size	tank_turn_right, .-tank_turn_right
 438 0026 00BF     		.section	.text.turn_right,"ax",%progbits
 439              		.align	2
 440              		.global	turn_right
 441              		.thumb
 442              		.thumb_func
 443              		.type	turn_right, %function
 444              	turn_right:
 445              	.LFB91:
1042:main.c        ****         tank_turn_right(100, 200);
 446              		.loc 1 1042 0
 447              		.cfi_startproc
 448              		@ args = 0, pretend = 0, frame = 0
 449              		@ frame_needed = 0, uses_anonymous_args = 0
 450 0000 08B5     		push	{r3, lr}
 451              		.cfi_def_cfa_offset 8
 452              		.cfi_offset 3, -8
 453              		.cfi_offset 14, -4
1043:main.c        ****         motor_forward(0, 0);
 454              		.loc 1 1043 0
 455 0002 C821     		movs	r1, #200
 456 0004 6420     		movs	r0, #100
ARM GAS  C:\Users\8523~1\AppData\Local\Temp\ccJE8vL2.s 			page 28


 457 0006 FFF7FEFF 		bl	tank_turn_right
 458              	.LVL22:
1044:main.c        ****         
 459              		.loc 1 1044 0
 460 000a 0021     		movs	r1, #0
 461 000c 0846     		mov	r0, r1
 462 000e FFF7FEFF 		bl	motor_forward
 463              	.LVL23:
 464              	.L32:
 465              	.LBB3:
1048:main.c        ****                 
 466              		.loc 1 1048 0
 467 0012 FFF7FEFF 		bl	sensors
 468              	.LVL24:
1050:main.c        ****                 
 469              		.loc 1 1050 0
 470 0016 0021     		movs	r1, #0
 471 0018 6420     		movs	r0, #100
 472 001a FFF7FEFF 		bl	tank_turn_right
 473              	.LVL25:
1052:main.c        ****                     {
 474              		.loc 1 1052 0
 475 001e 024B     		ldr	r3, .L34
 476 0020 1B68     		ldr	r3, [r3]
 477 0022 0C2B     		cmp	r3, #12
 478 0024 F5D1     		bne	.L32
 479              	.LBE3:
1057:main.c        ****  
 480              		.loc 1 1057 0
 481 0026 08BD     		pop	{r3, pc}
 482              	.L35:
 483              		.align	2
 484              	.L34:
 485 0028 00000000 		.word	line
 486              		.cfi_endproc
 487              	.LFE91:
 488              		.size	turn_right, .-turn_right
 489              		.section	.text.drive,"ax",%progbits
 490              		.align	2
 491              		.global	drive
 492              		.thumb
 493              		.thumb_func
 494              		.type	drive, %function
 495              	drive:
 496              	.LFB89:
 814:main.c        ****         
 497              		.loc 1 814 0
 498              		.cfi_startproc
 499              		@ args = 0, pretend = 0, frame = 0
 500              		@ frame_needed = 0, uses_anonymous_args = 0
 501 0000 08B5     		push	{r3, lr}
 502              		.cfi_def_cfa_offset 8
 503              		.cfi_offset 3, -8
 504              		.cfi_offset 14, -4
 816:main.c        ****             {
 505              		.loc 1 816 0
 506 0002 974B     		ldr	r3, .L61
ARM GAS  C:\Users\8523~1\AppData\Local\Temp\ccJE8vL2.s 			page 29


 507 0004 1B68     		ldr	r3, [r3]
 508 0006 0C2B     		cmp	r3, #12
 509 0008 04D1     		bne	.L37
 818:main.c        ****                 return;
 510              		.loc 1 818 0
 511 000a 0021     		movs	r1, #0
 512 000c 4B20     		movs	r0, #75
 513 000e FFF7FEFF 		bl	motor_forward
 514              	.LVL26:
 819:main.c        ****             }  
 515              		.loc 1 819 0
 516 0012 08BD     		pop	{r3, pc}
 517              	.L37:
 822:main.c        ****             {
 518              		.loc 1 822 0
 519 0014 182B     		cmp	r3, #24
 520 0016 05D1     		bne	.L39
 824:main.c        ****                 return;  
 521              		.loc 1 824 0
 522 0018 0022     		movs	r2, #0
 523 001a 6421     		movs	r1, #100
 524 001c 1046     		mov	r0, r2
 525 001e FFF7FEFF 		bl	motor_turn
 526              	.LVL27:
 825:main.c        ****             }   
 527              		.loc 1 825 0
 528 0022 08BD     		pop	{r3, pc}
 529              	.L39:
 828:main.c        ****             {
 530              		.loc 1 828 0
 531 0024 062B     		cmp	r3, #6
 532 0026 05D1     		bne	.L40
 830:main.c        ****                 return;
 533              		.loc 1 830 0
 534 0028 0022     		movs	r2, #0
 535 002a 1146     		mov	r1, r2
 536 002c 6420     		movs	r0, #100
 537 002e FFF7FEFF 		bl	motor_turn
 538              	.LVL28:
 831:main.c        ****             }   
 539              		.loc 1 831 0
 540 0032 08BD     		pop	{r3, pc}
 541              	.L40:
 834:main.c        ****             {
 542              		.loc 1 834 0
 543 0034 302B     		cmp	r3, #48
 544 0036 01D0     		beq	.L41
 834:main.c        ****             {
 545              		.loc 1 834 0 is_stmt 0 discriminator 1
 546 0038 102B     		cmp	r3, #16
 547 003a 05D1     		bne	.L42
 548              	.L41:
 836:main.c        ****                 return;
 549              		.loc 1 836 0 is_stmt 1
 550 003c 0022     		movs	r2, #0
 551 003e 9621     		movs	r1, #150
 552 0040 1046     		mov	r0, r2
ARM GAS  C:\Users\8523~1\AppData\Local\Temp\ccJE8vL2.s 			page 30


 553 0042 FFF7FEFF 		bl	motor_turn
 554              	.LVL29:
 837:main.c        ****             }   
 555              		.loc 1 837 0
 556 0046 08BD     		pop	{r3, pc}
 557              	.L42:
 840:main.c        ****             {
 558              		.loc 1 840 0
 559 0048 9A1E     		subs	r2, r3, #2
 560 004a 012A     		cmp	r2, #1
 561 004c 05D8     		bhi	.L43
 842:main.c        ****                 return;
 562              		.loc 1 842 0
 563 004e 0022     		movs	r2, #0
 564 0050 1146     		mov	r1, r2
 565 0052 9620     		movs	r0, #150
 566 0054 FFF7FEFF 		bl	motor_turn
 567              	.LVL30:
 843:main.c        ****             }
 568              		.loc 1 843 0
 569 0058 08BD     		pop	{r3, pc}
 570              	.L43:
 846:main.c        ****             {
 571              		.loc 1 846 0
 572 005a 3F2B     		cmp	r3, #63
 573 005c 38D1     		bne	.L44
 846:main.c        ****             {
 574              		.loc 1 846 0 is_stmt 0 discriminator 1
 575 005e 814A     		ldr	r2, .L61+4
 576 0060 1268     		ldr	r2, [r2]
 577 0062 012A     		cmp	r2, #1
 578 0064 34D1     		bne	.L44
 846:main.c        ****             {
 579              		.loc 1 846 0 discriminator 2
 580 0066 804A     		ldr	r2, .L61+8
 581 0068 1278     		ldrb	r2, [r2]	@ zero_extendqisi2
 582 006a 4E2A     		cmp	r2, #78
 583 006c 30D1     		bne	.L44
 848:main.c        ****                     {
 584              		.loc 1 848 0 is_stmt 1
 585 006e 7F4B     		ldr	r3, .L61+12
 586 0070 1B68     		ldr	r3, [r3]
 587 0072 002B     		cmp	r3, #0
 588 0074 14DB     		blt	.L45
 850:main.c        ****                     
 589              		.loc 1 850 0
 590 0076 FA20     		movs	r0, #250
 591 0078 FFF7FEFF 		bl	vTaskDelay
 592              	.LVL31:
 852:main.c        ****                         
 593              		.loc 1 852 0
 594 007c FFF7FEFF 		bl	turn_left
 595              	.LVL32:
 854:main.c        ****                                             
 596              		.loc 1 854 0
 597 0080 5722     		movs	r2, #87
 598 0082 794B     		ldr	r3, .L61+8
ARM GAS  C:\Users\8523~1\AppData\Local\Temp\ccJE8vL2.s 			page 31


 599 0084 1A70     		strb	r2, [r3]
 856:main.c        ****                             {
 600              		.loc 1 856 0
 601 0086 774B     		ldr	r3, .L61+4
 602 0088 1B68     		ldr	r3, [r3]
 603 008a 012B     		cmp	r3, #1
 604 008c 40F03D81 		bne	.L36
 858:main.c        ****                                 turn_right();
 605              		.loc 1 858 0
 606 0090 FFF7FEFF 		bl	turn_right
 607              	.LVL33:
 859:main.c        ****                                 compass = 'E';    
 608              		.loc 1 859 0
 609 0094 FFF7FEFF 		bl	turn_right
 610              	.LVL34:
 860:main.c        ****                             }
 611              		.loc 1 860 0
 612 0098 4522     		movs	r2, #69
 613 009a 734B     		ldr	r3, .L61+8
 614 009c 1A70     		strb	r2, [r3]
 615 009e 08BD     		pop	{r3, pc}
 616              	.L45:
 864:main.c        ****                         {
 617              		.loc 1 864 0
 618 00a0 002B     		cmp	r3, #0
 619 00a2 80F23281 		bge	.L36
 866:main.c        ****                             
 620              		.loc 1 866 0
 621 00a6 FA20     		movs	r0, #250
 622 00a8 FFF7FEFF 		bl	vTaskDelay
 623              	.LVL35:
 868:main.c        ****                                 
 624              		.loc 1 868 0
 625 00ac FFF7FEFF 		bl	turn_right
 626              	.LVL36:
 870:main.c        ****                                                     
 627              		.loc 1 870 0
 628 00b0 4522     		movs	r2, #69
 629 00b2 6D4B     		ldr	r3, .L61+8
 630 00b4 1A70     		strb	r2, [r3]
 872:main.c        ****                                     {
 631              		.loc 1 872 0
 632 00b6 6B4B     		ldr	r3, .L61+4
 633 00b8 1B68     		ldr	r3, [r3]
 634 00ba 012B     		cmp	r3, #1
 635 00bc 40F02581 		bne	.L36
 874:main.c        ****                                         turn_left();
 636              		.loc 1 874 0
 637 00c0 FFF7FEFF 		bl	turn_left
 638              	.LVL37:
 875:main.c        ****                                         compass = 'W';    
 639              		.loc 1 875 0
 640 00c4 FFF7FEFF 		bl	turn_left
 641              	.LVL38:
 876:main.c        ****                                     }      
 642              		.loc 1 876 0
 643 00c8 5722     		movs	r2, #87
ARM GAS  C:\Users\8523~1\AppData\Local\Temp\ccJE8vL2.s 			page 32


 644 00ca 674B     		ldr	r3, .L61+8
 645 00cc 1A70     		strb	r2, [r3]
 646 00ce 08BD     		pop	{r3, pc}
 647              	.L44:
 883:main.c        ****             {
 648              		.loc 1 883 0
 649 00d0 3F2B     		cmp	r3, #63
 650 00d2 1ED1     		bne	.L46
 883:main.c        ****             {
 651              		.loc 1 883 0 is_stmt 0 discriminator 1
 652 00d4 634A     		ldr	r2, .L61+4
 653 00d6 1268     		ldr	r2, [r2]
 654 00d8 DAB9     		cbnz	r2, .L46
 883:main.c        ****             {
 655              		.loc 1 883 0 discriminator 2
 656 00da 634A     		ldr	r2, .L61+8
 657 00dc 1278     		ldrb	r2, [r2]	@ zero_extendqisi2
 658 00de 572A     		cmp	r2, #87
 659 00e0 17D1     		bne	.L46
 883:main.c        ****             {
 660              		.loc 1 883 0 discriminator 3
 661 00e2 624A     		ldr	r2, .L61+12
 662 00e4 1268     		ldr	r2, [r2]
 663 00e6 12F1030F 		cmn	r2, #3
 664 00ea 12D0     		beq	.L46
 885:main.c        ****                                                         
 665              		.loc 1 885 0 is_stmt 1
 666 00ec FA20     		movs	r0, #250
 667 00ee FFF7FEFF 		bl	vTaskDelay
 668              	.LVL39:
 887:main.c        ****                     
 669              		.loc 1 887 0
 670 00f2 FFF7FEFF 		bl	turn_right
 671              	.LVL40:
 889:main.c        ****                                         
 672              		.loc 1 889 0
 673 00f6 4E22     		movs	r2, #78
 674 00f8 5B4B     		ldr	r3, .L61+8
 675 00fa 1A70     		strb	r2, [r3]
 891:main.c        ****                     {
 676              		.loc 1 891 0
 677 00fc 594B     		ldr	r3, .L61+4
 678 00fe 1B68     		ldr	r3, [r3]
 679 0100 012B     		cmp	r3, #1
 680 0102 40F00281 		bne	.L36
 893:main.c        ****                         compass = 'W';
 681              		.loc 1 893 0
 682 0106 FFF7FEFF 		bl	turn_left
 683              	.LVL41:
 894:main.c        ****                     }
 684              		.loc 1 894 0
 685 010a 5722     		movs	r2, #87
 686 010c 564B     		ldr	r3, .L61+8
 687 010e 1A70     		strb	r2, [r3]
 688 0110 08BD     		pop	{r3, pc}
 689              	.L46:
 900:main.c        ****             {
ARM GAS  C:\Users\8523~1\AppData\Local\Temp\ccJE8vL2.s 			page 33


 690              		.loc 1 900 0
 691 0112 3F2B     		cmp	r3, #63
 692 0114 1FD1     		bne	.L47
 900:main.c        ****             {
 693              		.loc 1 900 0 is_stmt 0 discriminator 1
 694 0116 534A     		ldr	r2, .L61+4
 695 0118 1268     		ldr	r2, [r2]
 696 011a 012A     		cmp	r2, #1
 697 011c 04D0     		beq	.L48
 900:main.c        ****             {
 698              		.loc 1 900 0 discriminator 3
 699 011e 534A     		ldr	r2, .L61+12
 700 0120 1268     		ldr	r2, [r2]
 701 0122 12F1030F 		cmn	r2, #3
 702 0126 16D1     		bne	.L47
 703              	.L48:
 900:main.c        ****             {
 704              		.loc 1 900 0 discriminator 4
 705 0128 4F4A     		ldr	r2, .L61+8
 706 012a 1278     		ldrb	r2, [r2]	@ zero_extendqisi2
 707 012c 572A     		cmp	r2, #87
 708 012e 12D1     		bne	.L47
 902:main.c        ****                                                         
 709              		.loc 1 902 0 is_stmt 1
 710 0130 FA20     		movs	r0, #250
 711 0132 FFF7FEFF 		bl	vTaskDelay
 712              	.LVL42:
 904:main.c        ****                                            
 713              		.loc 1 904 0
 714 0136 FFF7FEFF 		bl	turn_right
 715              	.LVL43:
 906:main.c        ****                     
 716              		.loc 1 906 0
 717 013a 4E22     		movs	r2, #78
 718 013c 4A4B     		ldr	r3, .L61+8
 719 013e 1A70     		strb	r2, [r3]
 908:main.c        ****                     {
 720              		.loc 1 908 0
 721 0140 484B     		ldr	r3, .L61+4
 722 0142 1B68     		ldr	r3, [r3]
 723 0144 012B     		cmp	r3, #1
 724 0146 40F0E080 		bne	.L36
 910:main.c        ****                         compass = 'E';
 725              		.loc 1 910 0
 726 014a FFF7FEFF 		bl	turn_right
 727              	.LVL44:
 911:main.c        ****                     }
 728              		.loc 1 911 0
 729 014e 4522     		movs	r2, #69
 730 0150 454B     		ldr	r3, .L61+8
 731 0152 1A70     		strb	r2, [r3]
 732 0154 08BD     		pop	{r3, pc}
 733              	.L47:
 917:main.c        ****             {
 734              		.loc 1 917 0
 735 0156 3F2B     		cmp	r3, #63
 736 0158 1DD1     		bne	.L49
ARM GAS  C:\Users\8523~1\AppData\Local\Temp\ccJE8vL2.s 			page 34


 917:main.c        ****             {
 737              		.loc 1 917 0 is_stmt 0 discriminator 1
 738 015a 424A     		ldr	r2, .L61+4
 739 015c 1268     		ldr	r2, [r2]
 740 015e D2B9     		cbnz	r2, .L49
 917:main.c        ****             {
 741              		.loc 1 917 0 discriminator 2
 742 0160 414A     		ldr	r2, .L61+8
 743 0162 1278     		ldrb	r2, [r2]	@ zero_extendqisi2
 744 0164 452A     		cmp	r2, #69
 745 0166 16D1     		bne	.L49
 917:main.c        ****             {
 746              		.loc 1 917 0 discriminator 3
 747 0168 404A     		ldr	r2, .L61+12
 748 016a 1268     		ldr	r2, [r2]
 749 016c 032A     		cmp	r2, #3
 750 016e 12D0     		beq	.L49
 919:main.c        ****                                                         
 751              		.loc 1 919 0 is_stmt 1
 752 0170 FA20     		movs	r0, #250
 753 0172 FFF7FEFF 		bl	vTaskDelay
 754              	.LVL45:
 921:main.c        ****                                            
 755              		.loc 1 921 0
 756 0176 FFF7FEFF 		bl	turn_left
 757              	.LVL46:
 923:main.c        ****                     
 758              		.loc 1 923 0
 759 017a 4E22     		movs	r2, #78
 760 017c 3A4B     		ldr	r3, .L61+8
 761 017e 1A70     		strb	r2, [r3]
 925:main.c        ****                     {
 762              		.loc 1 925 0
 763 0180 384B     		ldr	r3, .L61+4
 764 0182 1B68     		ldr	r3, [r3]
 765 0184 012B     		cmp	r3, #1
 766 0186 40F0C080 		bne	.L36
 927:main.c        ****                         compass = 'E';
 767              		.loc 1 927 0
 768 018a FFF7FEFF 		bl	turn_right
 769              	.LVL47:
 928:main.c        ****                     }
 770              		.loc 1 928 0
 771 018e 4522     		movs	r2, #69
 772 0190 354B     		ldr	r3, .L61+8
 773 0192 1A70     		strb	r2, [r3]
 774 0194 08BD     		pop	{r3, pc}
 775              	.L49:
 934:main.c        ****             {
 776              		.loc 1 934 0
 777 0196 3F2B     		cmp	r3, #63
 778 0198 1ED1     		bne	.L50
 934:main.c        ****             {
 779              		.loc 1 934 0 is_stmt 0 discriminator 1
 780 019a 324A     		ldr	r2, .L61+4
 781 019c 1268     		ldr	r2, [r2]
 782 019e 012A     		cmp	r2, #1
ARM GAS  C:\Users\8523~1\AppData\Local\Temp\ccJE8vL2.s 			page 35


 783 01a0 03D0     		beq	.L51
 934:main.c        ****             {
 784              		.loc 1 934 0 discriminator 3
 785 01a2 324A     		ldr	r2, .L61+12
 786 01a4 1268     		ldr	r2, [r2]
 787 01a6 032A     		cmp	r2, #3
 788 01a8 16D1     		bne	.L50
 789              	.L51:
 934:main.c        ****             {
 790              		.loc 1 934 0 discriminator 4
 791 01aa 2F4A     		ldr	r2, .L61+8
 792 01ac 1278     		ldrb	r2, [r2]	@ zero_extendqisi2
 793 01ae 452A     		cmp	r2, #69
 794 01b0 12D1     		bne	.L50
 936:main.c        ****                                                         
 795              		.loc 1 936 0 is_stmt 1
 796 01b2 FA20     		movs	r0, #250
 797 01b4 FFF7FEFF 		bl	vTaskDelay
 798              	.LVL48:
 938:main.c        ****                                            
 799              		.loc 1 938 0
 800 01b8 FFF7FEFF 		bl	turn_left
 801              	.LVL49:
 940:main.c        ****                     
 802              		.loc 1 940 0
 803 01bc 4E22     		movs	r2, #78
 804 01be 2A4B     		ldr	r3, .L61+8
 805 01c0 1A70     		strb	r2, [r3]
 942:main.c        ****                     {
 806              		.loc 1 942 0
 807 01c2 284B     		ldr	r3, .L61+4
 808 01c4 1B68     		ldr	r3, [r3]
 809 01c6 012B     		cmp	r3, #1
 810 01c8 40F09F80 		bne	.L36
 944:main.c        ****                         compass = 'W';
 811              		.loc 1 944 0
 812 01cc FFF7FEFF 		bl	turn_left
 813              	.LVL50:
 945:main.c        ****                     }
 814              		.loc 1 945 0
 815 01d0 5722     		movs	r2, #87
 816 01d2 254B     		ldr	r3, .L61+8
 817 01d4 1A70     		strb	r2, [r3]
 818 01d6 08BD     		pop	{r3, pc}
 819              	.L50:
 951:main.c        ****             {
 820              		.loc 1 951 0
 821 01d8 1F2B     		cmp	r3, #31
 822 01da 09D0     		beq	.L52
 951:main.c        ****             {
 823              		.loc 1 951 0 is_stmt 0 discriminator 2
 824 01dc 3E2B     		cmp	r3, #62
 825 01de 07D0     		beq	.L52
 951:main.c        ****             {
 826              		.loc 1 951 0 discriminator 4
 827 01e0 0F2B     		cmp	r3, #15
 828 01e2 05D0     		beq	.L52
ARM GAS  C:\Users\8523~1\AppData\Local\Temp\ccJE8vL2.s 			page 36


 951:main.c        ****             {
 829              		.loc 1 951 0 discriminator 6
 830 01e4 3C2B     		cmp	r3, #60
 831 01e6 03D0     		beq	.L52
 951:main.c        ****             {
 832              		.loc 1 951 0 discriminator 8
 833 01e8 072B     		cmp	r3, #7
 834 01ea 01D0     		beq	.L52
 951:main.c        ****             {
 835              		.loc 1 951 0 discriminator 10
 836 01ec 382B     		cmp	r3, #56
 837 01ee 3FD1     		bne	.L53
 838              	.L52:
 951:main.c        ****             {
 839              		.loc 1 951 0 discriminator 11
 840 01f0 1C4A     		ldr	r2, .L61+4
 841 01f2 1268     		ldr	r2, [r2]
 842 01f4 012A     		cmp	r2, #1
 843 01f6 3BD1     		bne	.L53
 951:main.c        ****             {
 844              		.loc 1 951 0 discriminator 12
 845 01f8 1B4A     		ldr	r2, .L61+8
 846 01fa 1278     		ldrb	r2, [r2]	@ zero_extendqisi2
 847 01fc 4E2A     		cmp	r2, #78
 848 01fe 37D1     		bne	.L53
 953:main.c        ****                         
 849              		.loc 1 953 0 is_stmt 1
 850 0200 3220     		movs	r0, #50
 851 0202 FFF7FEFF 		bl	vTaskDelay
 852              	.LVL51:
 955:main.c        ****                     
 853              		.loc 1 955 0
 854 0206 FFF7FEFF 		bl	sensors
 855              	.LVL52:
 957:main.c        ****                     
 856              		.loc 1 957 0
 857 020a FFF7FEFF 		bl	coordinatecounter
 858              	.LVL53:
 959:main.c        ****                     
 859              		.loc 1 959 0
 860 020e FFF7FEFF 		bl	linedetector
 861              	.LVL54:
 961:main.c        ****                         {
 862              		.loc 1 961 0
 863 0212 134B     		ldr	r3, .L61
 864 0214 1B68     		ldr	r3, [r3]
 865 0216 1F2B     		cmp	r3, #31
 866 0218 09D0     		beq	.L54
 961:main.c        ****                         {
 867              		.loc 1 961 0 is_stmt 0 discriminator 1
 868 021a 3E2B     		cmp	r3, #62
 869 021c 07D0     		beq	.L54
 961:main.c        ****                         {
 870              		.loc 1 961 0 discriminator 2
 871 021e 0F2B     		cmp	r3, #15
 872 0220 05D0     		beq	.L54
 961:main.c        ****                         {
ARM GAS  C:\Users\8523~1\AppData\Local\Temp\ccJE8vL2.s 			page 37


 873              		.loc 1 961 0 discriminator 3
 874 0222 3C2B     		cmp	r3, #60
 875 0224 03D0     		beq	.L54
 961:main.c        ****                         {
 876              		.loc 1 961 0 discriminator 4
 877 0226 072B     		cmp	r3, #7
 878 0228 01D0     		beq	.L54
 961:main.c        ****                         {
 879              		.loc 1 961 0 discriminator 5
 880 022a 382B     		cmp	r3, #56
 881 022c 6DD1     		bne	.L36
 882              	.L54:
 963:main.c        ****                                 {
 883              		.loc 1 963 0 is_stmt 1
 884 022e 0F4B     		ldr	r3, .L61+12
 885 0230 1B68     		ldr	r3, [r3]
 886 0232 002B     		cmp	r3, #0
 887 0234 08DA     		bge	.L55
 965:main.c        ****                                     turn_right();
 888              		.loc 1 965 0
 889 0236 C820     		movs	r0, #200
 890 0238 FFF7FEFF 		bl	vTaskDelay
 891              	.LVL55:
 966:main.c        ****                                 
 892              		.loc 1 966 0
 893 023c FFF7FEFF 		bl	turn_right
 894              	.LVL56:
 968:main.c        ****                                 }
 895              		.loc 1 968 0
 896 0240 4522     		movs	r2, #69
 897 0242 094B     		ldr	r3, .L61+8
 898 0244 1A70     		strb	r2, [r3]
 899 0246 08BD     		pop	{r3, pc}
 900              	.L55:
 971:main.c        ****                                     {
 901              		.loc 1 971 0
 902 0248 002B     		cmp	r3, #0
 903 024a 5EDD     		ble	.L36
 973:main.c        ****                                         turn_left();
 904              		.loc 1 973 0
 905 024c C820     		movs	r0, #200
 906 024e FFF7FEFF 		bl	vTaskDelay
 907              	.LVL57:
 974:main.c        ****                                     
 908              		.loc 1 974 0
 909 0252 FFF7FEFF 		bl	turn_left
 910              	.LVL58:
 976:main.c        ****                                     }
 911              		.loc 1 976 0
 912 0256 5722     		movs	r2, #87
 913 0258 034B     		ldr	r3, .L61+8
 914 025a 1A70     		strb	r2, [r3]
 915 025c 08BD     		pop	{r3, pc}
 916              	.L62:
 917 025e 00BF     		.align	2
 918              	.L61:
 919 0260 00000000 		.word	line
ARM GAS  C:\Users\8523~1\AppData\Local\Temp\ccJE8vL2.s 			page 38


 920 0264 00000000 		.word	obstacle
 921 0268 00000000 		.word	compass
 922 026c 00000000 		.word	x
 923              	.L53:
 983:main.c        ****             {
 924              		.loc 1 983 0
 925 0270 1F2B     		cmp	r3, #31
 926 0272 09D0     		beq	.L56
 983:main.c        ****             {
 927              		.loc 1 983 0 is_stmt 0 discriminator 2
 928 0274 3E2B     		cmp	r3, #62
 929 0276 07D0     		beq	.L56
 983:main.c        ****             {
 930              		.loc 1 983 0 discriminator 4
 931 0278 0F2B     		cmp	r3, #15
 932 027a 05D0     		beq	.L56
 983:main.c        ****             {
 933              		.loc 1 983 0 discriminator 6
 934 027c 3C2B     		cmp	r3, #60
 935 027e 03D0     		beq	.L56
 983:main.c        ****             {
 936              		.loc 1 983 0 discriminator 8
 937 0280 072B     		cmp	r3, #7
 938 0282 01D0     		beq	.L56
 983:main.c        ****             {
 939              		.loc 1 983 0 discriminator 10
 940 0284 382B     		cmp	r3, #56
 941 0286 3CD1     		bne	.L57
 942              	.L56:
 983:main.c        ****             {
 943              		.loc 1 983 0 discriminator 11
 944 0288 204B     		ldr	r3, .L63
 945 028a 1B68     		ldr	r3, [r3]
 946 028c 0A2B     		cmp	r3, #10
 947 028e 38DD     		ble	.L57
 983:main.c        ****             {
 948              		.loc 1 983 0 discriminator 12
 949 0290 1F4B     		ldr	r3, .L63+4
 950 0292 1B78     		ldrb	r3, [r3]	@ zero_extendqisi2
 951 0294 4E2B     		cmp	r3, #78
 952 0296 34D1     		bne	.L57
 985:main.c        ****                         
 953              		.loc 1 985 0 is_stmt 1
 954 0298 3220     		movs	r0, #50
 955 029a FFF7FEFF 		bl	vTaskDelay
 956              	.LVL59:
 987:main.c        ****                     
 957              		.loc 1 987 0
 958 029e FFF7FEFF 		bl	sensors
 959              	.LVL60:
 989:main.c        ****                     
 960              		.loc 1 989 0
 961 02a2 FFF7FEFF 		bl	coordinatecounter
 962              	.LVL61:
 991:main.c        ****                     
 963              		.loc 1 991 0
 964 02a6 FFF7FEFF 		bl	linedetector
ARM GAS  C:\Users\8523~1\AppData\Local\Temp\ccJE8vL2.s 			page 39


 965              	.LVL62:
 993:main.c        ****                         {
 966              		.loc 1 993 0
 967 02aa 1A4B     		ldr	r3, .L63+8
 968 02ac 1B68     		ldr	r3, [r3]
 969 02ae 1F2B     		cmp	r3, #31
 970 02b0 09D0     		beq	.L58
 993:main.c        ****                         {
 971              		.loc 1 993 0 is_stmt 0 discriminator 1
 972 02b2 3E2B     		cmp	r3, #62
 973 02b4 07D0     		beq	.L58
 993:main.c        ****                         {
 974              		.loc 1 993 0 discriminator 2
 975 02b6 0F2B     		cmp	r3, #15
 976 02b8 05D0     		beq	.L58
 993:main.c        ****                         {
 977              		.loc 1 993 0 discriminator 3
 978 02ba 3C2B     		cmp	r3, #60
 979 02bc 03D0     		beq	.L58
 993:main.c        ****                         {
 980              		.loc 1 993 0 discriminator 4
 981 02be 072B     		cmp	r3, #7
 982 02c0 01D0     		beq	.L58
 993:main.c        ****                         {
 983              		.loc 1 993 0 discriminator 5
 984 02c2 382B     		cmp	r3, #56
 985 02c4 21D1     		bne	.L36
 986              	.L58:
 995:main.c        ****                     
 987              		.loc 1 995 0 is_stmt 1
 988 02c6 FFF7FEFF 		bl	sensors
 989              	.LVL63:
 997:main.c        ****                             
 990              		.loc 1 997 0
 991 02ca FFF7FEFF 		bl	coordinatecounter
 992              	.LVL64:
 999:main.c        ****                             
 993              		.loc 1 999 0
 994 02ce FFF7FEFF 		bl	linedetector
 995              	.LVL65:
1001:main.c        ****                                 {
 996              		.loc 1 1001 0
 997 02d2 114B     		ldr	r3, .L63+12
 998 02d4 1B68     		ldr	r3, [r3]
 999 02d6 002B     		cmp	r3, #0
 1000 02d8 08DA     		bge	.L59
1003:main.c        ****                                     turn_right();
 1001              		.loc 1 1003 0
 1002 02da C820     		movs	r0, #200
 1003 02dc FFF7FEFF 		bl	vTaskDelay
 1004              	.LVL66:
1004:main.c        ****                                 
 1005              		.loc 1 1004 0
 1006 02e0 FFF7FEFF 		bl	turn_right
 1007              	.LVL67:
1006:main.c        ****                                 }
 1008              		.loc 1 1006 0
ARM GAS  C:\Users\8523~1\AppData\Local\Temp\ccJE8vL2.s 			page 40


 1009 02e4 4522     		movs	r2, #69
 1010 02e6 0A4B     		ldr	r3, .L63+4
 1011 02e8 1A70     		strb	r2, [r3]
 1012 02ea 08BD     		pop	{r3, pc}
 1013              	.L59:
1009:main.c        ****                                     {
 1014              		.loc 1 1009 0
 1015 02ec 002B     		cmp	r3, #0
 1016 02ee 0CDD     		ble	.L36
1011:main.c        ****                                         turn_left();
 1017              		.loc 1 1011 0
 1018 02f0 C820     		movs	r0, #200
 1019 02f2 FFF7FEFF 		bl	vTaskDelay
 1020              	.LVL68:
1012:main.c        ****                                     
 1021              		.loc 1 1012 0
 1022 02f6 FFF7FEFF 		bl	turn_left
 1023              	.LVL69:
1014:main.c        ****                                     }
 1024              		.loc 1 1014 0
 1025 02fa 5722     		movs	r2, #87
 1026 02fc 044B     		ldr	r3, .L63+4
 1027 02fe 1A70     		strb	r2, [r3]
 1028 0300 08BD     		pop	{r3, pc}
 1029              	.L57:
1020:main.c        ****     }
 1030              		.loc 1 1020 0
 1031 0302 0021     		movs	r1, #0
 1032 0304 4B20     		movs	r0, #75
 1033 0306 FFF7FEFF 		bl	motor_forward
 1034              	.LVL70:
 1035              	.L36:
 1036 030a 08BD     		pop	{r3, pc}
 1037              	.L64:
 1038              		.align	2
 1039              	.L63:
 1040 030c 00000000 		.word	.LANCHOR0
 1041 0310 00000000 		.word	compass
 1042 0314 00000000 		.word	line
 1043 0318 00000000 		.word	x
 1044              		.cfi_endproc
 1045              	.LFE89:
 1046              		.size	drive, .-drive
 1047              		.section	.text.zmain,"ax",%progbits
 1048              		.align	2
 1049              		.global	zmain
 1050              		.thumb
 1051              		.thumb_func
 1052              		.type	zmain, %function
 1053              	zmain:
 1054              	.LFB85:
 676:main.c        ****     
 1055              		.loc 1 676 0
 1056              		.cfi_startproc
 1057              		@ args = 0, pretend = 0, frame = 0
 1058              		@ frame_needed = 0, uses_anonymous_args = 0
 1059 0000 38B5     		push	{r3, r4, r5, lr}
ARM GAS  C:\Users\8523~1\AppData\Local\Temp\ccJE8vL2.s 			page 41


 1060              		.cfi_def_cfa_offset 16
 1061              		.cfi_offset 3, -16
 1062              		.cfi_offset 4, -12
 1063              		.cfi_offset 5, -8
 1064              		.cfi_offset 14, -4
 678:main.c        ****     IR_flush();
 1065              		.loc 1 678 0
 1066 0002 FFF7FEFF 		bl	IR_Start
 1067              	.LVL71:
 679:main.c        ****     Ultra_Start();
 1068              		.loc 1 679 0
 1069 0006 FFF7FEFF 		bl	IR_flush
 1070              	.LVL72:
 680:main.c        ****     reflectance_start();
 1071              		.loc 1 680 0
 1072 000a FFF7FEFF 		bl	Ultra_Start
 1073              	.LVL73:
 681:main.c        ****     motor_start();
 1074              		.loc 1 681 0
 1075 000e FFF7FEFF 		bl	reflectance_start
 1076              	.LVL74:
 682:main.c        ****     
 1077              		.loc 1 682 0
 1078 0012 FFF7FEFF 		bl	motor_start
 1079              	.LVL75:
 1080              	.L66:
 684:main.c        ****     
 1081              		.loc 1 684 0 discriminator 1
 1082 0016 FFF7FEFF 		bl	SW1_Read
 1083              	.LVL76:
 1084 001a 0128     		cmp	r0, #1
 1085 001c FBD0     		beq	.L66
 686:main.c        ****     
 1086              		.loc 1 686 0
 1087 001e 4E22     		movs	r2, #78
 1088 0020 294B     		ldr	r3, .L70
 1089 0022 1A70     		strb	r2, [r3]
 1090              	.L67:
 690:main.c        ****             drive();
 1091              		.loc 1 690 0
 1092 0024 FFF7FEFF 		bl	sensors
 1093              	.LVL77:
 691:main.c        ****             
 1094              		.loc 1 691 0
 1095 0028 FFF7FEFF 		bl	drive
 1096              	.LVL78:
 693:main.c        ****                 {
 1097              		.loc 1 693 0
 1098 002c 274B     		ldr	r3, .L70+4
 1099 002e 1B68     		ldr	r3, [r3]
 1100 0030 3F2B     		cmp	r3, #63
 1101 0032 F7D1     		bne	.L67
 695:main.c        ****                     Beep(100, 100);
 1102              		.loc 1 695 0
 1103 0034 0021     		movs	r1, #0
 1104 0036 0846     		mov	r0, r1
 1105 0038 FFF7FEFF 		bl	motor_forward
ARM GAS  C:\Users\8523~1\AppData\Local\Temp\ccJE8vL2.s 			page 42


 1106              	.LVL79:
 696:main.c        ****                     print_mqtt("Zumo021/ready ", "maze");
 1107              		.loc 1 696 0
 1108 003c 6421     		movs	r1, #100
 1109 003e 0846     		mov	r0, r1
 1110 0040 FFF7FEFF 		bl	Beep
 1111              	.LVL80:
 697:main.c        ****                     break;
 1112              		.loc 1 697 0
 1113 0044 2249     		ldr	r1, .L70+8
 1114 0046 2348     		ldr	r0, .L70+12
 1115 0048 FFF7FEFF 		bl	print_mqtt
 1116              	.LVL81:
 704:main.c        ****             //reveille();
 1117              		.loc 1 704 0
 1118 004c FFF7FEFF 		bl	IR_wait
 1119              	.LVL82:
 707:main.c        ****             print_mqtt("Zumo021/start ", "%d", starttime);
 1120              		.loc 1 707 0
 1121 0050 FFF7FEFF 		bl	xTaskGetTickCount
 1122              	.LVL83:
 1123 0054 0246     		mov	r2, r0
 1124 0056 204B     		ldr	r3, .L70+16
 1125 0058 1860     		str	r0, [r3]
 708:main.c        ****             
 1126              		.loc 1 708 0
 1127 005a 2049     		ldr	r1, .L70+20
 1128 005c 2048     		ldr	r0, .L70+24
 1129 005e FFF7FEFF 		bl	print_mqtt
 1130              	.LVL84:
 1131              	.L68:
 715:main.c        ****         
 1132              		.loc 1 715 0
 1133 0062 FFF7FEFF 		bl	sensors
 1134              	.LVL85:
 717:main.c        ****         
 1135              		.loc 1 717 0
 1136 0066 FFF7FEFF 		bl	linedetector
 1137              	.LVL86:
 719:main.c        ****         
 1138              		.loc 1 719 0
 1139 006a FFF7FEFF 		bl	coordinatecounter
 1140              	.LVL87:
 721:main.c        ****         
 1141              		.loc 1 721 0
 1142 006e FFF7FEFF 		bl	drive
 1143              	.LVL88:
 723:main.c        ****             {
 1144              		.loc 1 723 0
 1145 0072 164B     		ldr	r3, .L70+4
 1146 0074 1B68     		ldr	r3, [r3]
 1147 0076 002B     		cmp	r3, #0
 1148 0078 F3D1     		bne	.L68
 723:main.c        ****             {
 1149              		.loc 1 723 0 is_stmt 0 discriminator 1
 1150 007a 1A4B     		ldr	r3, .L70+28
 1151 007c 1B68     		ldr	r3, [r3]
ARM GAS  C:\Users\8523~1\AppData\Local\Temp\ccJE8vL2.s 			page 43


 1152 007e 0D2B     		cmp	r3, #13
 1153 0080 EFD1     		bne	.L68
 723:main.c        ****             {
 1154              		.loc 1 723 0 discriminator 2
 1155 0082 194B     		ldr	r3, .L70+32
 1156 0084 1B68     		ldr	r3, [r3]
 1157 0086 002B     		cmp	r3, #0
 1158 0088 EBD1     		bne	.L68
 725:main.c        ****                 
 1159              		.loc 1 725 0 is_stmt 1
 1160 008a FFF7FEFF 		bl	motor_stop
 1161              	.LVL89:
 727:main.c        ****                 
 1162              		.loc 1 727 0
 1163 008e 154B     		ldr	r3, .L70+28
 1164 0090 1B68     		ldr	r3, [r3]
 1165 0092 154A     		ldr	r2, .L70+32
 1166 0094 1268     		ldr	r2, [r2]
 1167 0096 1549     		ldr	r1, .L70+36
 1168 0098 1548     		ldr	r0, .L70+40
 1169 009a FFF7FEFF 		bl	print_mqtt
 1170              	.LVL90:
 729:main.c        ****                     
 1171              		.loc 1 729 0
 1172 009e FFF7FEFF 		bl	xTaskGetTickCount
 1173              	.LVL91:
 1174 00a2 0246     		mov	r2, r0
 1175 00a4 134D     		ldr	r5, .L70+44
 1176 00a6 2860     		str	r0, [r5]
 731:main.c        ****                 
 1177              		.loc 1 731 0
 1178 00a8 0C4C     		ldr	r4, .L70+20
 1179 00aa 2146     		mov	r1, r4
 1180 00ac 1248     		ldr	r0, .L70+48
 1181 00ae FFF7FEFF 		bl	print_mqtt
 1182              	.LVL92:
 733:main.c        ****                 
 1183              		.loc 1 733 0
 1184 00b2 2B68     		ldr	r3, [r5]
 1185 00b4 084A     		ldr	r2, .L70+16
 1186 00b6 1268     		ldr	r2, [r2]
 1187 00b8 9A1A     		subs	r2, r3, r2
 1188 00ba 104B     		ldr	r3, .L70+52
 1189 00bc 1A60     		str	r2, [r3]
 735:main.c        ****                 
 1190              		.loc 1 735 0
 1191 00be 2146     		mov	r1, r4
 1192 00c0 0F48     		ldr	r0, .L70+56
 1193 00c2 FFF7FEFF 		bl	print_mqtt
 1194              	.LVL93:
 1195 00c6 38BD     		pop	{r3, r4, r5, pc}
 1196              	.L71:
 1197              		.align	2
 1198              	.L70:
 1199 00c8 00000000 		.word	compass
 1200 00cc 00000000 		.word	line
 1201 00d0 1C000000 		.word	.LC2
ARM GAS  C:\Users\8523~1\AppData\Local\Temp\ccJE8vL2.s 			page 44


 1202 00d4 24000000 		.word	.LC3
 1203 00d8 00000000 		.word	starttime
 1204 00dc 34000000 		.word	.LC4
 1205 00e0 38000000 		.word	.LC5
 1206 00e4 00000000 		.word	.LANCHOR0
 1207 00e8 00000000 		.word	x
 1208 00ec 00000000 		.word	.LC0
 1209 00f0 08000000 		.word	.LC1
 1210 00f4 00000000 		.word	finishtime
 1211 00f8 48000000 		.word	.LC6
 1212 00fc 00000000 		.word	timepass
 1213 0100 58000000 		.word	.LC7
 1214              		.cfi_endproc
 1215              	.LFE85:
 1216              		.size	zmain, .-zmain
 1217              		.section	.text.reveille,"ax",%progbits
 1218              		.align	2
 1219              		.global	reveille
 1220              		.thumb
 1221              		.thumb_func
 1222              		.type	reveille, %function
 1223              	reveille:
 1224              	.LFB94:
1075:main.c        ****     }
1076:main.c        ****     
1077:main.c        **** void reveille(void)
1078:main.c        ****     {
 1225              		.loc 1 1078 0
 1226              		.cfi_startproc
 1227              		@ args = 0, pretend = 0, frame = 0
 1228              		@ frame_needed = 0, uses_anonymous_args = 0
 1229 0000 08B5     		push	{r3, lr}
 1230              		.cfi_def_cfa_offset 8
 1231              		.cfi_offset 3, -8
 1232              		.cfi_offset 14, -4
1079:main.c        ****         Beep(200, G1);
 1233              		.loc 1 1079 0
 1234 0002 FF21     		movs	r1, #255
 1235 0004 C820     		movs	r0, #200
 1236 0006 FFF7FEFF 		bl	Beep
 1237              	.LVL94:
1080:main.c        ****         Beep(200, C1);
 1238              		.loc 1 1080 0
 1239 000a BF21     		movs	r1, #191
 1240 000c C820     		movs	r0, #200
 1241 000e FFF7FEFF 		bl	Beep
 1242              	.LVL95:
1081:main.c        ****         Beep(100, E1);
 1243              		.loc 1 1081 0
 1244 0012 9821     		movs	r1, #152
 1245 0014 6420     		movs	r0, #100
 1246 0016 FFF7FEFF 		bl	Beep
 1247              	.LVL96:
1082:main.c        ****         Beep(100, C1);
 1248              		.loc 1 1082 0
 1249 001a BF21     		movs	r1, #191
 1250 001c 6420     		movs	r0, #100
ARM GAS  C:\Users\8523~1\AppData\Local\Temp\ccJE8vL2.s 			page 45


 1251 001e FFF7FEFF 		bl	Beep
 1252              	.LVL97:
1083:main.c        ****         Beep(200, G1);
 1253              		.loc 1 1083 0
 1254 0022 FF21     		movs	r1, #255
 1255 0024 C820     		movs	r0, #200
 1256 0026 FFF7FEFF 		bl	Beep
 1257              	.LVL98:
1084:main.c        ****         
1085:main.c        ****         Beep(200, E1);
 1258              		.loc 1 1085 0
 1259 002a 9821     		movs	r1, #152
 1260 002c C820     		movs	r0, #200
 1261 002e FFF7FEFF 		bl	Beep
 1262              	.LVL99:
1086:main.c        ****         Beep(200, C1);
 1263              		.loc 1 1086 0
 1264 0032 BF21     		movs	r1, #191
 1265 0034 C820     		movs	r0, #200
 1266 0036 FFF7FEFF 		bl	Beep
 1267              	.LVL100:
1087:main.c        ****         Beep(100, E1);
 1268              		.loc 1 1087 0
 1269 003a 9821     		movs	r1, #152
 1270 003c 6420     		movs	r0, #100
 1271 003e FFF7FEFF 		bl	Beep
 1272              	.LVL101:
1088:main.c        ****         Beep(100, C1);
 1273              		.loc 1 1088 0
 1274 0042 BF21     		movs	r1, #191
 1275 0044 6420     		movs	r0, #100
 1276 0046 FFF7FEFF 		bl	Beep
 1277              	.LVL102:
1089:main.c        ****         Beep(200, G1);
 1278              		.loc 1 1089 0
 1279 004a FF21     		movs	r1, #255
 1280 004c C820     		movs	r0, #200
 1281 004e FFF7FEFF 		bl	Beep
 1282              	.LVL103:
1090:main.c        ****         
1091:main.c        ****         Beep(200, E1);
 1283              		.loc 1 1091 0
 1284 0052 9821     		movs	r1, #152
 1285 0054 C820     		movs	r0, #200
 1286 0056 FFF7FEFF 		bl	Beep
 1287              	.LVL104:
1092:main.c        ****         Beep(200, C1);
 1288              		.loc 1 1092 0
 1289 005a BF21     		movs	r1, #191
 1290 005c C820     		movs	r0, #200
 1291 005e FFF7FEFF 		bl	Beep
 1292              	.LVL105:
1093:main.c        ****         Beep(100, E1);
 1293              		.loc 1 1093 0
 1294 0062 9821     		movs	r1, #152
 1295 0064 6420     		movs	r0, #100
 1296 0066 FFF7FEFF 		bl	Beep
ARM GAS  C:\Users\8523~1\AppData\Local\Temp\ccJE8vL2.s 			page 46


 1297              	.LVL106:
1094:main.c        ****         Beep(100, C1);
 1298              		.loc 1 1094 0
 1299 006a BF21     		movs	r1, #191
 1300 006c 6420     		movs	r0, #100
 1301 006e FFF7FEFF 		bl	Beep
 1302              	.LVL107:
1095:main.c        ****         Beep(200, G1);
 1303              		.loc 1 1095 0
 1304 0072 FF21     		movs	r1, #255
 1305 0074 C820     		movs	r0, #200
 1306 0076 FFF7FEFF 		bl	Beep
 1307              	.LVL108:
1096:main.c        ****         
1097:main.c        ****         Beep(200, C1);
 1308              		.loc 1 1097 0
 1309 007a BF21     		movs	r1, #191
 1310 007c C820     		movs	r0, #200
 1311 007e FFF7FEFF 		bl	Beep
 1312              	.LVL109:
1098:main.c        ****         Beep(400, E1);
 1313              		.loc 1 1098 0
 1314 0082 9821     		movs	r1, #152
 1315 0084 4FF4C870 		mov	r0, #400
 1316 0088 FFF7FEFF 		bl	Beep
 1317              	.LVL110:
1099:main.c        ****         Beep(200, C1);
 1318              		.loc 1 1099 0
 1319 008c BF21     		movs	r1, #191
 1320 008e C820     		movs	r0, #200
 1321 0090 FFF7FEFF 		bl	Beep
 1322              	.LVL111:
 1323 0094 08BD     		pop	{r3, pc}
 1324              		.cfi_endproc
 1325              	.LFE94:
 1326              		.size	reveille, .-reveille
 1327 0096 00BF     		.section	.text.champions,"ax",%progbits
 1328              		.align	2
 1329              		.global	champions
 1330              		.thumb
 1331              		.thumb_func
 1332              		.type	champions, %function
 1333              	champions:
 1334              	.LFB95:
1100:main.c        ****     }
1101:main.c        ****     
1102:main.c        **** void champions(void)
1103:main.c        ****     {
 1335              		.loc 1 1103 0
 1336              		.cfi_startproc
 1337              		@ args = 0, pretend = 0, frame = 0
 1338              		@ frame_needed = 0, uses_anonymous_args = 0
 1339 0000 08B5     		push	{r3, lr}
 1340              		.cfi_def_cfa_offset 8
 1341              		.cfi_offset 3, -8
 1342              		.cfi_offset 14, -4
1104:main.c        ****         Beep(250, F2);
ARM GAS  C:\Users\8523~1\AppData\Local\Temp\ccJE8vL2.s 			page 47


 1343              		.loc 1 1104 0
 1344 0002 4821     		movs	r1, #72
 1345 0004 FA20     		movs	r0, #250
 1346 0006 FFF7FEFF 		bl	Beep
 1347              	.LVL112:
1105:main.c        ****         Beep(250, F1);
 1348              		.loc 1 1105 0
 1349 000a 8F21     		movs	r1, #143
 1350 000c FA20     		movs	r0, #250
 1351 000e FFF7FEFF 		bl	Beep
 1352              	.LVL113:
1106:main.c        ****         Beep(250, A1);
 1353              		.loc 1 1106 0
 1354 0012 E321     		movs	r1, #227
 1355 0014 FA20     		movs	r0, #250
 1356 0016 FFF7FEFF 		bl	Beep
 1357              	.LVL114:
1107:main.c        ****         Beep(250, C1);
 1358              		.loc 1 1107 0
 1359 001a BF21     		movs	r1, #191
 1360 001c FA20     		movs	r0, #250
 1361 001e FFF7FEFF 		bl	Beep
 1362              	.LVL115:
1108:main.c        ****                         Beep(250, E2);
 1363              		.loc 1 1108 0
 1364 0022 4C21     		movs	r1, #76
 1365 0024 FA20     		movs	r0, #250
 1366 0026 FFF7FEFF 		bl	Beep
 1367              	.LVL116:
1109:main.c        ****                         Beep(250, F2);
 1368              		.loc 1 1109 0
 1369 002a 4821     		movs	r1, #72
 1370 002c FA20     		movs	r0, #250
 1371 002e FFF7FEFF 		bl	Beep
 1372              	.LVL117:
1110:main.c        ****                         Beep(250, E2);
 1373              		.loc 1 1110 0
 1374 0032 4C21     		movs	r1, #76
 1375 0034 FA20     		movs	r0, #250
 1376 0036 FFF7FEFF 		bl	Beep
 1377              	.LVL118:
1111:main.c        ****         Beep(250, A1);
 1378              		.loc 1 1111 0
 1379 003a E321     		movs	r1, #227
 1380 003c FA20     		movs	r0, #250
 1381 003e FFF7FEFF 		bl	Beep
 1382              	.LVL119:
1112:main.c        ****                         Beep(250, C2);
 1383              		.loc 1 1112 0
 1384 0042 6021     		movs	r1, #96
 1385 0044 FA20     		movs	r0, #250
 1386 0046 FFF7FEFF 		bl	Beep
 1387              	.LVL120:
1113:main.c        ****         Beep(250, A1);
 1388              		.loc 1 1113 0
 1389 004a E321     		movs	r1, #227
 1390 004c FA20     		movs	r0, #250
ARM GAS  C:\Users\8523~1\AppData\Local\Temp\ccJE8vL2.s 			page 48


 1391 004e FFF7FEFF 		bl	Beep
 1392              	.LVL121:
1114:main.c        ****         Beep(250, E1);
 1393              		.loc 1 1114 0
 1394 0052 9821     		movs	r1, #152
 1395 0054 FA20     		movs	r0, #250
 1396 0056 FFF7FEFF 		bl	Beep
 1397              	.LVL122:
1115:main.c        ****                         Beep(250, A2);
 1398              		.loc 1 1115 0
 1399 005a 7221     		movs	r1, #114
 1400 005c FA20     		movs	r0, #250
 1401 005e FFF7FEFF 		bl	Beep
 1402              	.LVL123:
1116:main.c        ****                         Beep(250, D2);
 1403              		.loc 1 1116 0
 1404 0062 5521     		movs	r1, #85
 1405 0064 FA20     		movs	r0, #250
 1406 0066 FFF7FEFF 		bl	Beep
 1407              	.LVL124:
1117:main.c        ****         Beep(150, D1); 
 1408              		.loc 1 1117 0
 1409 006a AA21     		movs	r1, #170
 1410 006c 9620     		movs	r0, #150
 1411 006e FFF7FEFF 		bl	Beep
 1412              	.LVL125:
1118:main.c        ****                         Beep(100, C2);
 1413              		.loc 1 1118 0
 1414 0072 6021     		movs	r1, #96
 1415 0074 6420     		movs	r0, #100
 1416 0076 FFF7FEFF 		bl	Beep
 1417              	.LVL126:
1119:main.c        ****                         Beep(250, A2);
 1418              		.loc 1 1119 0
 1419 007a 7221     		movs	r1, #114
 1420 007c FA20     		movs	r0, #250
 1421 007e FFF7FEFF 		bl	Beep
 1422              	.LVL127:
1120:main.c        ****         Beep(250, D1); 
 1423              		.loc 1 1120 0
 1424 0082 AA21     		movs	r1, #170
 1425 0084 FA20     		movs	r0, #250
 1426 0086 FFF7FEFF 		bl	Beep
 1427              	.LVL128:
1121:main.c        ****         Beep(250, A1);
 1428              		.loc 1 1121 0
 1429 008a E321     		movs	r1, #227
 1430 008c FA20     		movs	r0, #250
 1431 008e FFF7FEFF 		bl	Beep
 1432              	.LVL129:
1122:main.c        ****         Beep(250, F1);
 1433              		.loc 1 1122 0
 1434 0092 8F21     		movs	r1, #143
 1435 0094 FA20     		movs	r0, #250
 1436 0096 FFF7FEFF 		bl	Beep
 1437              	.LVL130:
1123:main.c        ****         
ARM GAS  C:\Users\8523~1\AppData\Local\Temp\ccJE8vL2.s 			page 49


1124:main.c        ****         Beep(10, F1);
 1438              		.loc 1 1124 0
 1439 009a 8F21     		movs	r1, #143
 1440 009c 0A20     		movs	r0, #10
 1441 009e FFF7FEFF 		bl	Beep
 1442              	.LVL131:
1125:main.c        ****         Beep(10, As2);
 1443              		.loc 1 1125 0
 1444 00a2 6B21     		movs	r1, #107
 1445 00a4 0A20     		movs	r0, #10
 1446 00a6 FFF7FEFF 		bl	Beep
 1447              	.LVL132:
1126:main.c        ****         Beep(10, D2);
 1448              		.loc 1 1126 0
 1449 00aa 5521     		movs	r1, #85
 1450 00ac 0A20     		movs	r0, #10
 1451 00ae FFF7FEFF 		bl	Beep
 1452              	.LVL133:
1127:main.c        ****         Beep(10, F2);
 1453              		.loc 1 1127 0
 1454 00b2 4821     		movs	r1, #72
 1455 00b4 0A20     		movs	r0, #10
 1456 00b6 FFF7FEFF 		bl	Beep
 1457              	.LVL134:
1128:main.c        ****         Beep(10, F1);
 1458              		.loc 1 1128 0
 1459 00ba 8F21     		movs	r1, #143
 1460 00bc 0A20     		movs	r0, #10
 1461 00be FFF7FEFF 		bl	Beep
 1462              	.LVL135:
1129:main.c        ****         Beep(10, As2);
 1463              		.loc 1 1129 0
 1464 00c2 6B21     		movs	r1, #107
 1465 00c4 0A20     		movs	r0, #10
 1466 00c6 FFF7FEFF 		bl	Beep
 1467              	.LVL136:
1130:main.c        ****         Beep(10, D2);
 1468              		.loc 1 1130 0
 1469 00ca 5521     		movs	r1, #85
 1470 00cc 0A20     		movs	r0, #10
 1471 00ce FFF7FEFF 		bl	Beep
 1472              	.LVL137:
1131:main.c        ****         Beep(10, F2);
 1473              		.loc 1 1131 0
 1474 00d2 4821     		movs	r1, #72
 1475 00d4 0A20     		movs	r0, #10
 1476 00d6 FFF7FEFF 		bl	Beep
 1477              	.LVL138:
1132:main.c        ****         Beep(10, F1);
 1478              		.loc 1 1132 0
 1479 00da 8F21     		movs	r1, #143
 1480 00dc 0A20     		movs	r0, #10
 1481 00de FFF7FEFF 		bl	Beep
 1482              	.LVL139:
1133:main.c        ****         Beep(10, As2);
 1483              		.loc 1 1133 0
 1484 00e2 6B21     		movs	r1, #107
ARM GAS  C:\Users\8523~1\AppData\Local\Temp\ccJE8vL2.s 			page 50


 1485 00e4 0A20     		movs	r0, #10
 1486 00e6 FFF7FEFF 		bl	Beep
 1487              	.LVL140:
1134:main.c        ****         Beep(10, D2);
 1488              		.loc 1 1134 0
 1489 00ea 5521     		movs	r1, #85
 1490 00ec 0A20     		movs	r0, #10
 1491 00ee FFF7FEFF 		bl	Beep
 1492              	.LVL141:
1135:main.c        ****         Beep(10, F2);
 1493              		.loc 1 1135 0
 1494 00f2 4821     		movs	r1, #72
 1495 00f4 0A20     		movs	r0, #10
 1496 00f6 FFF7FEFF 		bl	Beep
 1497              	.LVL142:
1136:main.c        ****         Beep(10, F1);
 1498              		.loc 1 1136 0
 1499 00fa 8F21     		movs	r1, #143
 1500 00fc 0A20     		movs	r0, #10
 1501 00fe FFF7FEFF 		bl	Beep
 1502              	.LVL143:
1137:main.c        ****         Beep(10, As2);
 1503              		.loc 1 1137 0
 1504 0102 6B21     		movs	r1, #107
 1505 0104 0A20     		movs	r0, #10
 1506 0106 FFF7FEFF 		bl	Beep
 1507              	.LVL144:
1138:main.c        ****         Beep(10, D2);
 1508              		.loc 1 1138 0
 1509 010a 5521     		movs	r1, #85
 1510 010c 0A20     		movs	r0, #10
 1511 010e FFF7FEFF 		bl	Beep
 1512              	.LVL145:
1139:main.c        ****         vTaskDelay(100);
 1513              		.loc 1 1139 0
 1514 0112 6420     		movs	r0, #100
 1515 0114 FFF7FEFF 		bl	vTaskDelay
 1516              	.LVL146:
1140:main.c        ****         Beep(10, F1);
 1517              		.loc 1 1140 0
 1518 0118 8F21     		movs	r1, #143
 1519 011a 0A20     		movs	r0, #10
 1520 011c FFF7FEFF 		bl	Beep
 1521              	.LVL147:
1141:main.c        ****         Beep(10, As2);
 1522              		.loc 1 1141 0
 1523 0120 6B21     		movs	r1, #107
 1524 0122 0A20     		movs	r0, #10
 1525 0124 FFF7FEFF 		bl	Beep
 1526              	.LVL148:
1142:main.c        ****         Beep(10, D2);
 1527              		.loc 1 1142 0
 1528 0128 5521     		movs	r1, #85
 1529 012a 0A20     		movs	r0, #10
 1530 012c FFF7FEFF 		bl	Beep
 1531              	.LVL149:
1143:main.c        ****         Beep(10, F2);
ARM GAS  C:\Users\8523~1\AppData\Local\Temp\ccJE8vL2.s 			page 51


 1532              		.loc 1 1143 0
 1533 0130 4821     		movs	r1, #72
 1534 0132 0A20     		movs	r0, #10
 1535 0134 FFF7FEFF 		bl	Beep
 1536              	.LVL150:
1144:main.c        ****         Beep(10, F1);
 1537              		.loc 1 1144 0
 1538 0138 8F21     		movs	r1, #143
 1539 013a 0A20     		movs	r0, #10
 1540 013c FFF7FEFF 		bl	Beep
 1541              	.LVL151:
1145:main.c        ****         Beep(10, As2);
 1542              		.loc 1 1145 0
 1543 0140 6B21     		movs	r1, #107
 1544 0142 0A20     		movs	r0, #10
 1545 0144 FFF7FEFF 		bl	Beep
 1546              	.LVL152:
1146:main.c        ****         Beep(10, D2);
 1547              		.loc 1 1146 0
 1548 0148 5521     		movs	r1, #85
 1549 014a 0A20     		movs	r0, #10
 1550 014c FFF7FEFF 		bl	Beep
 1551              	.LVL153:
1147:main.c        ****         Beep(10, F2);
 1552              		.loc 1 1147 0
 1553 0150 4821     		movs	r1, #72
 1554 0152 0A20     		movs	r0, #10
 1555 0154 FFF7FEFF 		bl	Beep
 1556              	.LVL154:
1148:main.c        ****         Beep(10, F1);
 1557              		.loc 1 1148 0
 1558 0158 8F21     		movs	r1, #143
 1559 015a 0A20     		movs	r0, #10
 1560 015c FFF7FEFF 		bl	Beep
 1561              	.LVL155:
1149:main.c        ****         Beep(10, As2);
 1562              		.loc 1 1149 0
 1563 0160 6B21     		movs	r1, #107
 1564 0162 0A20     		movs	r0, #10
 1565 0164 FFF7FEFF 		bl	Beep
 1566              	.LVL156:
1150:main.c        ****         Beep(10, D2);
 1567              		.loc 1 1150 0
 1568 0168 5521     		movs	r1, #85
 1569 016a 0A20     		movs	r0, #10
 1570 016c FFF7FEFF 		bl	Beep
 1571              	.LVL157:
1151:main.c        ****         Beep(10, F2);
 1572              		.loc 1 1151 0
 1573 0170 4821     		movs	r1, #72
 1574 0172 0A20     		movs	r0, #10
 1575 0174 FFF7FEFF 		bl	Beep
 1576              	.LVL158:
1152:main.c        ****         Beep(10, F1);
 1577              		.loc 1 1152 0
 1578 0178 8F21     		movs	r1, #143
 1579 017a 0A20     		movs	r0, #10
ARM GAS  C:\Users\8523~1\AppData\Local\Temp\ccJE8vL2.s 			page 52


 1580 017c FFF7FEFF 		bl	Beep
 1581              	.LVL159:
1153:main.c        ****         Beep(10, As2);
 1582              		.loc 1 1153 0
 1583 0180 6B21     		movs	r1, #107
 1584 0182 0A20     		movs	r0, #10
 1585 0184 FFF7FEFF 		bl	Beep
 1586              	.LVL160:
1154:main.c        ****         Beep(10, D2);
 1587              		.loc 1 1154 0
 1588 0188 5521     		movs	r1, #85
 1589 018a 0A20     		movs	r0, #10
 1590 018c FFF7FEFF 		bl	Beep
 1591              	.LVL161:
1155:main.c        ****         vTaskDelay(100);
 1592              		.loc 1 1155 0
 1593 0190 6420     		movs	r0, #100
 1594 0192 FFF7FEFF 		bl	vTaskDelay
 1595              	.LVL162:
1156:main.c        ****         Beep(10, F1);
 1596              		.loc 1 1156 0
 1597 0196 8F21     		movs	r1, #143
 1598 0198 0A20     		movs	r0, #10
 1599 019a FFF7FEFF 		bl	Beep
 1600              	.LVL163:
1157:main.c        ****         Beep(10, As2);
 1601              		.loc 1 1157 0
 1602 019e 6B21     		movs	r1, #107
 1603 01a0 0A20     		movs	r0, #10
 1604 01a2 FFF7FEFF 		bl	Beep
 1605              	.LVL164:
1158:main.c        ****         Beep(10, D2);
 1606              		.loc 1 1158 0
 1607 01a6 5521     		movs	r1, #85
 1608 01a8 0A20     		movs	r0, #10
 1609 01aa FFF7FEFF 		bl	Beep
 1610              	.LVL165:
1159:main.c        ****         Beep(10, F2);
 1611              		.loc 1 1159 0
 1612 01ae 4821     		movs	r1, #72
 1613 01b0 0A20     		movs	r0, #10
 1614 01b2 FFF7FEFF 		bl	Beep
 1615              	.LVL166:
1160:main.c        ****         Beep(10, F1);
 1616              		.loc 1 1160 0
 1617 01b6 8F21     		movs	r1, #143
 1618 01b8 0A20     		movs	r0, #10
 1619 01ba FFF7FEFF 		bl	Beep
 1620              	.LVL167:
1161:main.c        ****         Beep(10, As2);
 1621              		.loc 1 1161 0
 1622 01be 6B21     		movs	r1, #107
 1623 01c0 0A20     		movs	r0, #10
 1624 01c2 FFF7FEFF 		bl	Beep
 1625              	.LVL168:
1162:main.c        ****         Beep(10, D2);
 1626              		.loc 1 1162 0
ARM GAS  C:\Users\8523~1\AppData\Local\Temp\ccJE8vL2.s 			page 53


 1627 01c6 5521     		movs	r1, #85
 1628 01c8 0A20     		movs	r0, #10
 1629 01ca FFF7FEFF 		bl	Beep
 1630              	.LVL169:
1163:main.c        ****         Beep(10, F2);
 1631              		.loc 1 1163 0
 1632 01ce 4821     		movs	r1, #72
 1633 01d0 0A20     		movs	r0, #10
 1634 01d2 FFF7FEFF 		bl	Beep
 1635              	.LVL170:
1164:main.c        ****         Beep(10, F1);
 1636              		.loc 1 1164 0
 1637 01d6 8F21     		movs	r1, #143
 1638 01d8 0A20     		movs	r0, #10
 1639 01da FFF7FEFF 		bl	Beep
 1640              	.LVL171:
1165:main.c        ****         Beep(10, As2);
 1641              		.loc 1 1165 0
 1642 01de 6B21     		movs	r1, #107
 1643 01e0 0A20     		movs	r0, #10
 1644 01e2 FFF7FEFF 		bl	Beep
 1645              	.LVL172:
1166:main.c        ****         Beep(10, D2);
 1646              		.loc 1 1166 0
 1647 01e6 5521     		movs	r1, #85
 1648 01e8 0A20     		movs	r0, #10
 1649 01ea FFF7FEFF 		bl	Beep
 1650              	.LVL173:
1167:main.c        ****         Beep(10, F2);
 1651              		.loc 1 1167 0
 1652 01ee 4821     		movs	r1, #72
 1653 01f0 0A20     		movs	r0, #10
 1654 01f2 FFF7FEFF 		bl	Beep
 1655              	.LVL174:
1168:main.c        ****         Beep(10, F1);
 1656              		.loc 1 1168 0
 1657 01f6 8F21     		movs	r1, #143
 1658 01f8 0A20     		movs	r0, #10
 1659 01fa FFF7FEFF 		bl	Beep
 1660              	.LVL175:
1169:main.c        ****         Beep(10, As2);
 1661              		.loc 1 1169 0
 1662 01fe 6B21     		movs	r1, #107
 1663 0200 0A20     		movs	r0, #10
 1664 0202 FFF7FEFF 		bl	Beep
 1665              	.LVL176:
1170:main.c        ****         Beep(10, D2);
 1666              		.loc 1 1170 0
 1667 0206 5521     		movs	r1, #85
 1668 0208 0A20     		movs	r0, #10
 1669 020a FFF7FEFF 		bl	Beep
 1670              	.LVL177:
1171:main.c        ****         vTaskDelay(100);
 1671              		.loc 1 1171 0
 1672 020e 6420     		movs	r0, #100
 1673 0210 FFF7FEFF 		bl	vTaskDelay
 1674              	.LVL178:
ARM GAS  C:\Users\8523~1\AppData\Local\Temp\ccJE8vL2.s 			page 54


1172:main.c        ****         Beep(10, G1);
 1675              		.loc 1 1172 0
 1676 0214 FF21     		movs	r1, #255
 1677 0216 0A20     		movs	r0, #10
 1678 0218 FFF7FEFF 		bl	Beep
 1679              	.LVL179:
1173:main.c        ****         Beep(10, C2);
 1680              		.loc 1 1173 0
 1681 021c 6021     		movs	r1, #96
 1682 021e 0A20     		movs	r0, #10
 1683 0220 FFF7FEFF 		bl	Beep
 1684              	.LVL180:
1174:main.c        ****         Beep(10, E2);
 1685              		.loc 1 1174 0
 1686 0224 4C21     		movs	r1, #76
 1687 0226 0A20     		movs	r0, #10
 1688 0228 FFF7FEFF 		bl	Beep
 1689              	.LVL181:
1175:main.c        ****         Beep(10, G3);
 1690              		.loc 1 1175 0
 1691 022c 4021     		movs	r1, #64
 1692 022e 0A20     		movs	r0, #10
 1693 0230 FFF7FEFF 		bl	Beep
 1694              	.LVL182:
1176:main.c        ****         Beep(10, G1);
 1695              		.loc 1 1176 0
 1696 0234 FF21     		movs	r1, #255
 1697 0236 0A20     		movs	r0, #10
 1698 0238 FFF7FEFF 		bl	Beep
 1699              	.LVL183:
1177:main.c        ****         Beep(10, C2);
 1700              		.loc 1 1177 0
 1701 023c 6021     		movs	r1, #96
 1702 023e 0A20     		movs	r0, #10
 1703 0240 FFF7FEFF 		bl	Beep
 1704              	.LVL184:
1178:main.c        ****         Beep(10, E2);
 1705              		.loc 1 1178 0
 1706 0244 4C21     		movs	r1, #76
 1707 0246 0A20     		movs	r0, #10
 1708 0248 FFF7FEFF 		bl	Beep
 1709              	.LVL185:
1179:main.c        ****         Beep(10, G3);
 1710              		.loc 1 1179 0
 1711 024c 4021     		movs	r1, #64
 1712 024e 0A20     		movs	r0, #10
 1713 0250 FFF7FEFF 		bl	Beep
 1714              	.LVL186:
1180:main.c        ****         Beep(10, G1);
 1715              		.loc 1 1180 0
 1716 0254 FF21     		movs	r1, #255
 1717 0256 0A20     		movs	r0, #10
 1718 0258 FFF7FEFF 		bl	Beep
 1719              	.LVL187:
1181:main.c        ****         Beep(10, C2);
 1720              		.loc 1 1181 0
 1721 025c 6021     		movs	r1, #96
ARM GAS  C:\Users\8523~1\AppData\Local\Temp\ccJE8vL2.s 			page 55


 1722 025e 0A20     		movs	r0, #10
 1723 0260 FFF7FEFF 		bl	Beep
 1724              	.LVL188:
1182:main.c        ****         Beep(10, E2);
 1725              		.loc 1 1182 0
 1726 0264 4C21     		movs	r1, #76
 1727 0266 0A20     		movs	r0, #10
 1728 0268 FFF7FEFF 		bl	Beep
 1729              	.LVL189:
1183:main.c        ****         Beep(10, G3);
 1730              		.loc 1 1183 0
 1731 026c 4021     		movs	r1, #64
 1732 026e 0A20     		movs	r0, #10
 1733 0270 FFF7FEFF 		bl	Beep
 1734              	.LVL190:
1184:main.c        ****         Beep(10, G1);
 1735              		.loc 1 1184 0
 1736 0274 FF21     		movs	r1, #255
 1737 0276 0A20     		movs	r0, #10
 1738 0278 FFF7FEFF 		bl	Beep
 1739              	.LVL191:
1185:main.c        ****         Beep(10, C2);
 1740              		.loc 1 1185 0
 1741 027c 6021     		movs	r1, #96
 1742 027e 0A20     		movs	r0, #10
 1743 0280 FFF7FEFF 		bl	Beep
 1744              	.LVL192:
1186:main.c        ****         Beep(10, E2);
 1745              		.loc 1 1186 0
 1746 0284 4C21     		movs	r1, #76
 1747 0286 0A20     		movs	r0, #10
 1748 0288 FFF7FEFF 		bl	Beep
 1749              	.LVL193:
1187:main.c        ****         vTaskDelay(100);
 1750              		.loc 1 1187 0
 1751 028c 6420     		movs	r0, #100
 1752 028e FFF7FEFF 		bl	vTaskDelay
 1753              	.LVL194:
1188:main.c        ****         Beep(10, G1);
 1754              		.loc 1 1188 0
 1755 0292 FF21     		movs	r1, #255
 1756 0294 0A20     		movs	r0, #10
 1757 0296 FFF7FEFF 		bl	Beep
 1758              	.LVL195:
1189:main.c        ****         Beep(10, C2);
 1759              		.loc 1 1189 0
 1760 029a 6021     		movs	r1, #96
 1761 029c 0A20     		movs	r0, #10
 1762 029e FFF7FEFF 		bl	Beep
 1763              	.LVL196:
1190:main.c        ****         Beep(10, E2);
 1764              		.loc 1 1190 0
 1765 02a2 4C21     		movs	r1, #76
 1766 02a4 0A20     		movs	r0, #10
 1767 02a6 FFF7FEFF 		bl	Beep
 1768              	.LVL197:
1191:main.c        ****         Beep(10, G3);
ARM GAS  C:\Users\8523~1\AppData\Local\Temp\ccJE8vL2.s 			page 56


 1769              		.loc 1 1191 0
 1770 02aa 4021     		movs	r1, #64
 1771 02ac 0A20     		movs	r0, #10
 1772 02ae FFF7FEFF 		bl	Beep
 1773              	.LVL198:
1192:main.c        ****         Beep(10, G1);
 1774              		.loc 1 1192 0
 1775 02b2 FF21     		movs	r1, #255
 1776 02b4 0A20     		movs	r0, #10
 1777 02b6 FFF7FEFF 		bl	Beep
 1778              	.LVL199:
1193:main.c        ****         Beep(10, C2);
 1779              		.loc 1 1193 0
 1780 02ba 6021     		movs	r1, #96
 1781 02bc 0A20     		movs	r0, #10
 1782 02be FFF7FEFF 		bl	Beep
 1783              	.LVL200:
1194:main.c        ****         Beep(10, E2);
 1784              		.loc 1 1194 0
 1785 02c2 4C21     		movs	r1, #76
 1786 02c4 0A20     		movs	r0, #10
 1787 02c6 FFF7FEFF 		bl	Beep
 1788              	.LVL201:
1195:main.c        ****         Beep(10, G3);
 1789              		.loc 1 1195 0
 1790 02ca 4021     		movs	r1, #64
 1791 02cc 0A20     		movs	r0, #10
 1792 02ce FFF7FEFF 		bl	Beep
 1793              	.LVL202:
1196:main.c        ****         Beep(10, G1);
 1794              		.loc 1 1196 0
 1795 02d2 FF21     		movs	r1, #255
 1796 02d4 0A20     		movs	r0, #10
 1797 02d6 FFF7FEFF 		bl	Beep
 1798              	.LVL203:
1197:main.c        ****         Beep(10, C2);
 1799              		.loc 1 1197 0
 1800 02da 6021     		movs	r1, #96
 1801 02dc 0A20     		movs	r0, #10
 1802 02de FFF7FEFF 		bl	Beep
 1803              	.LVL204:
1198:main.c        ****         Beep(10, E2);
 1804              		.loc 1 1198 0
 1805 02e2 4C21     		movs	r1, #76
 1806 02e4 0A20     		movs	r0, #10
 1807 02e6 FFF7FEFF 		bl	Beep
 1808              	.LVL205:
1199:main.c        ****         Beep(10, G3);
 1809              		.loc 1 1199 0
 1810 02ea 4021     		movs	r1, #64
 1811 02ec 0A20     		movs	r0, #10
 1812 02ee FFF7FEFF 		bl	Beep
 1813              	.LVL206:
1200:main.c        ****         Beep(10, G1);
 1814              		.loc 1 1200 0
 1815 02f2 FF21     		movs	r1, #255
 1816 02f4 0A20     		movs	r0, #10
ARM GAS  C:\Users\8523~1\AppData\Local\Temp\ccJE8vL2.s 			page 57


 1817 02f6 FFF7FEFF 		bl	Beep
 1818              	.LVL207:
1201:main.c        ****         Beep(10, C2);
 1819              		.loc 1 1201 0
 1820 02fa 6021     		movs	r1, #96
 1821 02fc 0A20     		movs	r0, #10
 1822 02fe FFF7FEFF 		bl	Beep
 1823              	.LVL208:
1202:main.c        ****         Beep(10, E2);
 1824              		.loc 1 1202 0
 1825 0302 4C21     		movs	r1, #76
 1826 0304 0A20     		movs	r0, #10
 1827 0306 FFF7FEFF 		bl	Beep
 1828              	.LVL209:
1203:main.c        ****         Beep(10, G3);
 1829              		.loc 1 1203 0
 1830 030a 4021     		movs	r1, #64
 1831 030c 0A20     		movs	r0, #10
 1832 030e FFF7FEFF 		bl	Beep
 1833              	.LVL210:
1204:main.c        ****         Beep(10, G1);
 1834              		.loc 1 1204 0
 1835 0312 FF21     		movs	r1, #255
 1836 0314 0A20     		movs	r0, #10
 1837 0316 FFF7FEFF 		bl	Beep
 1838              	.LVL211:
1205:main.c        ****         Beep(10, C2);
 1839              		.loc 1 1205 0
 1840 031a 6021     		movs	r1, #96
 1841 031c 0A20     		movs	r0, #10
 1842 031e FFF7FEFF 		bl	Beep
 1843              	.LVL212:
1206:main.c        ****         Beep(10, E2);
 1844              		.loc 1 1206 0
 1845 0322 4C21     		movs	r1, #76
 1846 0324 0A20     		movs	r0, #10
 1847 0326 FFF7FEFF 		bl	Beep
 1848              	.LVL213:
1207:main.c        ****         Beep(10, G3);
 1849              		.loc 1 1207 0
 1850 032a 4021     		movs	r1, #64
 1851 032c 0A20     		movs	r0, #10
 1852 032e FFF7FEFF 		bl	Beep
 1853              	.LVL214:
1208:main.c        ****         vTaskDelay(50);
 1854              		.loc 1 1208 0
 1855 0332 3220     		movs	r0, #50
 1856 0334 FFF7FEFF 		bl	vTaskDelay
 1857              	.LVL215:
1209:main.c        **** 
1210:main.c        ****                         Beep(250, C2);
 1858              		.loc 1 1210 0
 1859 0338 6021     		movs	r1, #96
 1860 033a FA20     		movs	r0, #250
 1861 033c FFF7FEFF 		bl	Beep
 1862              	.LVL216:
1211:main.c        ****                         
ARM GAS  C:\Users\8523~1\AppData\Local\Temp\ccJE8vL2.s 			page 58


1212:main.c        ****                         Beep(100, E2);
 1863              		.loc 1 1212 0
 1864 0340 4C21     		movs	r1, #76
 1865 0342 6420     		movs	r0, #100
 1866 0344 FFF7FEFF 		bl	Beep
 1867              	.LVL217:
1213:main.c        ****                         Beep(150, F2);
 1868              		.loc 1 1213 0
 1869 0348 4821     		movs	r1, #72
 1870 034a 9620     		movs	r0, #150
 1871 034c FFF7FEFF 		bl	Beep
 1872              	.LVL218:
1214:main.c        ****         Beep(250, F1);
 1873              		.loc 1 1214 0
 1874 0350 8F21     		movs	r1, #143
 1875 0352 FA20     		movs	r0, #250
 1876 0354 FFF7FEFF 		bl	Beep
 1877              	.LVL219:
1215:main.c        ****         Beep(250, A1);
 1878              		.loc 1 1215 0
 1879 0358 E321     		movs	r1, #227
 1880 035a FA20     		movs	r0, #250
 1881 035c FFF7FEFF 		bl	Beep
 1882              	.LVL220:
1216:main.c        ****         Beep(250, C1);
 1883              		.loc 1 1216 0
 1884 0360 BF21     		movs	r1, #191
 1885 0362 FA20     		movs	r0, #250
 1886 0364 FFF7FEFF 		bl	Beep
 1887              	.LVL221:
1217:main.c        ****                         Beep(250, G3);
 1888              		.loc 1 1217 0
 1889 0368 4021     		movs	r1, #64
 1890 036a FA20     		movs	r0, #250
 1891 036c FFF7FEFF 		bl	Beep
 1892              	.LVL222:
1218:main.c        ****                         Beep(250, A3);
 1893              		.loc 1 1218 0
 1894 0370 3921     		movs	r1, #57
 1895 0372 FA20     		movs	r0, #250
 1896 0374 FFF7FEFF 		bl	Beep
 1897              	.LVL223:
1219:main.c        ****                         Beep(250, C3);
 1898              		.loc 1 1219 0
 1899 0378 3021     		movs	r1, #48
 1900 037a FA20     		movs	r0, #250
 1901 037c FFF7FEFF 		bl	Beep
 1902              	.LVL224:
1220:main.c        ****         Beep(250, A1);
 1903              		.loc 1 1220 0
 1904 0380 E321     		movs	r1, #227
 1905 0382 FA20     		movs	r0, #250
 1906 0384 FFF7FEFF 		bl	Beep
 1907              	.LVL225:
1221:main.c        ****                         Beep(250, A3);
 1908              		.loc 1 1221 0
 1909 0388 3921     		movs	r1, #57
ARM GAS  C:\Users\8523~1\AppData\Local\Temp\ccJE8vL2.s 			page 59


 1910 038a FA20     		movs	r0, #250
 1911 038c FFF7FEFF 		bl	Beep
 1912              	.LVL226:
1222:main.c        ****         Beep(250, A1);
 1913              		.loc 1 1222 0
 1914 0390 E321     		movs	r1, #227
 1915 0392 FA20     		movs	r0, #250
 1916 0394 FFF7FEFF 		bl	Beep
 1917              	.LVL227:
1223:main.c        ****         Beep(250, E1);
 1918              		.loc 1 1223 0
 1919 0398 9821     		movs	r1, #152
 1920 039a FA20     		movs	r0, #250
 1921 039c FFF7FEFF 		bl	Beep
 1922              	.LVL228:
1224:main.c        ****         Beep(250, G2);
 1923              		.loc 1 1224 0
 1924 03a0 8021     		movs	r1, #128
 1925 03a2 FA20     		movs	r0, #250
 1926 03a4 FFF7FEFF 		bl	Beep
 1927              	.LVL229:
1225:main.c        ****                         Beep(400, D2);
 1928              		.loc 1 1225 0
 1929 03a8 5521     		movs	r1, #85
 1930 03aa 4FF4C870 		mov	r0, #400
 1931 03ae FFF7FEFF 		bl	Beep
 1932              	.LVL230:
1226:main.c        ****                         Beep(100, E2);
 1933              		.loc 1 1226 0
 1934 03b2 4C21     		movs	r1, #76
 1935 03b4 6420     		movs	r0, #100
 1936 03b6 FFF7FEFF 		bl	Beep
 1937              	.LVL231:
1227:main.c        ****                         Beep(250, D2);
 1938              		.loc 1 1227 0
 1939 03ba 5521     		movs	r1, #85
 1940 03bc FA20     		movs	r0, #250
 1941 03be FFF7FEFF 		bl	Beep
 1942              	.LVL232:
1228:main.c        ****         Beep(250, As1);
 1943              		.loc 1 1228 0
 1944 03c2 D621     		movs	r1, #214
 1945 03c4 FA20     		movs	r0, #250
 1946 03c6 FFF7FEFF 		bl	Beep
 1947              	.LVL233:
1229:main.c        ****         
1230:main.c        ****         Beep(10, A1);
 1948              		.loc 1 1230 0
 1949 03ca E321     		movs	r1, #227
 1950 03cc 0A20     		movs	r0, #10
 1951 03ce FFF7FEFF 		bl	Beep
 1952              	.LVL234:
1231:main.c        ****         Beep(10, E1);
 1953              		.loc 1 1231 0
 1954 03d2 9821     		movs	r1, #152
 1955 03d4 0A20     		movs	r0, #10
 1956 03d6 FFF7FEFF 		bl	Beep
ARM GAS  C:\Users\8523~1\AppData\Local\Temp\ccJE8vL2.s 			page 60


 1957              	.LVL235:
1232:main.c        ****         Beep(10, A2);
 1958              		.loc 1 1232 0
 1959 03da 7221     		movs	r1, #114
 1960 03dc 0A20     		movs	r0, #10
 1961 03de FFF7FEFF 		bl	Beep
 1962              	.LVL236:
1233:main.c        ****         Beep(10, C2);
 1963              		.loc 1 1233 0
 1964 03e2 6021     		movs	r1, #96
 1965 03e4 0A20     		movs	r0, #10
 1966 03e6 FFF7FEFF 		bl	Beep
 1967              	.LVL237:
1234:main.c        ****         Beep(10, A1);
 1968              		.loc 1 1234 0
 1969 03ea E321     		movs	r1, #227
 1970 03ec 0A20     		movs	r0, #10
 1971 03ee FFF7FEFF 		bl	Beep
 1972              	.LVL238:
1235:main.c        ****         Beep(10, E1);
 1973              		.loc 1 1235 0
 1974 03f2 9821     		movs	r1, #152
 1975 03f4 0A20     		movs	r0, #10
 1976 03f6 FFF7FEFF 		bl	Beep
 1977              	.LVL239:
1236:main.c        ****         Beep(10, A2);
 1978              		.loc 1 1236 0
 1979 03fa 7221     		movs	r1, #114
 1980 03fc 0A20     		movs	r0, #10
 1981 03fe FFF7FEFF 		bl	Beep
 1982              	.LVL240:
1237:main.c        ****         Beep(10, C2);
 1983              		.loc 1 1237 0
 1984 0402 6021     		movs	r1, #96
 1985 0404 0A20     		movs	r0, #10
 1986 0406 FFF7FEFF 		bl	Beep
 1987              	.LVL241:
1238:main.c        ****         Beep(10, A1);
 1988              		.loc 1 1238 0
 1989 040a E321     		movs	r1, #227
 1990 040c 0A20     		movs	r0, #10
 1991 040e FFF7FEFF 		bl	Beep
 1992              	.LVL242:
1239:main.c        ****         Beep(10, E1);
 1993              		.loc 1 1239 0
 1994 0412 9821     		movs	r1, #152
 1995 0414 0A20     		movs	r0, #10
 1996 0416 FFF7FEFF 		bl	Beep
 1997              	.LVL243:
1240:main.c        ****         Beep(10, A2);
 1998              		.loc 1 1240 0
 1999 041a 7221     		movs	r1, #114
 2000 041c 0A20     		movs	r0, #10
 2001 041e FFF7FEFF 		bl	Beep
 2002              	.LVL244:
1241:main.c        ****         Beep(10, C2);
 2003              		.loc 1 1241 0
ARM GAS  C:\Users\8523~1\AppData\Local\Temp\ccJE8vL2.s 			page 61


 2004 0422 6021     		movs	r1, #96
 2005 0424 0A20     		movs	r0, #10
 2006 0426 FFF7FEFF 		bl	Beep
 2007              	.LVL245:
1242:main.c        ****         Beep(10, A1);
 2008              		.loc 1 1242 0
 2009 042a E321     		movs	r1, #227
 2010 042c 0A20     		movs	r0, #10
 2011 042e FFF7FEFF 		bl	Beep
 2012              	.LVL246:
1243:main.c        ****         Beep(10, E1);
 2013              		.loc 1 1243 0
 2014 0432 9821     		movs	r1, #152
 2015 0434 0A20     		movs	r0, #10
 2016 0436 FFF7FEFF 		bl	Beep
 2017              	.LVL247:
1244:main.c        ****         Beep(10, A2);
 2018              		.loc 1 1244 0
 2019 043a 7221     		movs	r1, #114
 2020 043c 0A20     		movs	r0, #10
 2021 043e FFF7FEFF 		bl	Beep
 2022              	.LVL248:
1245:main.c        ****         vTaskDelay(100);
 2023              		.loc 1 1245 0
 2024 0442 6420     		movs	r0, #100
 2025 0444 FFF7FEFF 		bl	vTaskDelay
 2026              	.LVL249:
1246:main.c        ****         Beep(10, G1);
 2027              		.loc 1 1246 0
 2028 0448 FF21     		movs	r1, #255
 2029 044a 0A20     		movs	r0, #10
 2030 044c FFF7FEFF 		bl	Beep
 2031              	.LVL250:
1247:main.c        ****         Beep(10, D1);
 2032              		.loc 1 1247 0
 2033 0450 AA21     		movs	r1, #170
 2034 0452 0A20     		movs	r0, #10
 2035 0454 FFF7FEFF 		bl	Beep
 2036              	.LVL251:
1248:main.c        ****         Beep(10, G2);
 2037              		.loc 1 1248 0
 2038 0458 8021     		movs	r1, #128
 2039 045a 0A20     		movs	r0, #10
 2040 045c FFF7FEFF 		bl	Beep
 2041              	.LVL252:
1249:main.c        ****         Beep(10, As2);
 2042              		.loc 1 1249 0
 2043 0460 6B21     		movs	r1, #107
 2044 0462 0A20     		movs	r0, #10
 2045 0464 FFF7FEFF 		bl	Beep
 2046              	.LVL253:
1250:main.c        ****         Beep(10, G1);
 2047              		.loc 1 1250 0
 2048 0468 FF21     		movs	r1, #255
 2049 046a 0A20     		movs	r0, #10
 2050 046c FFF7FEFF 		bl	Beep
 2051              	.LVL254:
ARM GAS  C:\Users\8523~1\AppData\Local\Temp\ccJE8vL2.s 			page 62


1251:main.c        ****         Beep(10, D1);
 2052              		.loc 1 1251 0
 2053 0470 AA21     		movs	r1, #170
 2054 0472 0A20     		movs	r0, #10
 2055 0474 FFF7FEFF 		bl	Beep
 2056              	.LVL255:
1252:main.c        ****         Beep(10, G2);
 2057              		.loc 1 1252 0
 2058 0478 8021     		movs	r1, #128
 2059 047a 0A20     		movs	r0, #10
 2060 047c FFF7FEFF 		bl	Beep
 2061              	.LVL256:
1253:main.c        ****         Beep(10, As2);
 2062              		.loc 1 1253 0
 2063 0480 6B21     		movs	r1, #107
 2064 0482 0A20     		movs	r0, #10
 2065 0484 FFF7FEFF 		bl	Beep
 2066              	.LVL257:
1254:main.c        ****         Beep(10, G1);
 2067              		.loc 1 1254 0
 2068 0488 FF21     		movs	r1, #255
 2069 048a 0A20     		movs	r0, #10
 2070 048c FFF7FEFF 		bl	Beep
 2071              	.LVL258:
1255:main.c        ****         Beep(10, D1);
 2072              		.loc 1 1255 0
 2073 0490 AA21     		movs	r1, #170
 2074 0492 0A20     		movs	r0, #10
 2075 0494 FFF7FEFF 		bl	Beep
 2076              	.LVL259:
1256:main.c        ****         Beep(10, G2);
 2077              		.loc 1 1256 0
 2078 0498 8021     		movs	r1, #128
 2079 049a 0A20     		movs	r0, #10
 2080 049c FFF7FEFF 		bl	Beep
 2081              	.LVL260:
1257:main.c        ****         Beep(10, As2);
 2082              		.loc 1 1257 0
 2083 04a0 6B21     		movs	r1, #107
 2084 04a2 0A20     		movs	r0, #10
 2085 04a4 FFF7FEFF 		bl	Beep
 2086              	.LVL261:
1258:main.c        ****         Beep(10, G1);
 2087              		.loc 1 1258 0
 2088 04a8 FF21     		movs	r1, #255
 2089 04aa 0A20     		movs	r0, #10
 2090 04ac FFF7FEFF 		bl	Beep
 2091              	.LVL262:
1259:main.c        ****         Beep(10, D1);
 2092              		.loc 1 1259 0
 2093 04b0 AA21     		movs	r1, #170
 2094 04b2 0A20     		movs	r0, #10
 2095 04b4 FFF7FEFF 		bl	Beep
 2096              	.LVL263:
1260:main.c        ****         Beep(10, G2);
 2097              		.loc 1 1260 0
 2098 04b8 8021     		movs	r1, #128
ARM GAS  C:\Users\8523~1\AppData\Local\Temp\ccJE8vL2.s 			page 63


 2099 04ba 0A20     		movs	r0, #10
 2100 04bc FFF7FEFF 		bl	Beep
 2101              	.LVL264:
1261:main.c        ****         vTaskDelay(100);
 2102              		.loc 1 1261 0
 2103 04c0 6420     		movs	r0, #100
 2104 04c2 FFF7FEFF 		bl	vTaskDelay
 2105              	.LVL265:
1262:main.c        ****         Beep(10, Cs1);
 2106              		.loc 1 1262 0
 2107 04c6 B421     		movs	r1, #180
 2108 04c8 0A20     		movs	r0, #10
 2109 04ca FFF7FEFF 		bl	Beep
 2110              	.LVL266:
1263:main.c        ****         Beep(10, F1);
 2111              		.loc 1 1263 0
 2112 04ce 8F21     		movs	r1, #143
 2113 04d0 0A20     		movs	r0, #10
 2114 04d2 FFF7FEFF 		bl	Beep
 2115              	.LVL267:
1264:main.c        ****         Beep(10, A2);
 2116              		.loc 1 1264 0
 2117 04d6 7221     		movs	r1, #114
 2118 04d8 0A20     		movs	r0, #10
 2119 04da FFF7FEFF 		bl	Beep
 2120              	.LVL268:
1265:main.c        ****         Beep(10, Cs2);
 2121              		.loc 1 1265 0
 2122 04de 5A21     		movs	r1, #90
 2123 04e0 0A20     		movs	r0, #10
 2124 04e2 FFF7FEFF 		bl	Beep
 2125              	.LVL269:
1266:main.c        ****         Beep(10, Cs1);
 2126              		.loc 1 1266 0
 2127 04e6 B421     		movs	r1, #180
 2128 04e8 0A20     		movs	r0, #10
 2129 04ea FFF7FEFF 		bl	Beep
 2130              	.LVL270:
1267:main.c        ****         Beep(10, F1);
 2131              		.loc 1 1267 0
 2132 04ee 8F21     		movs	r1, #143
 2133 04f0 0A20     		movs	r0, #10
 2134 04f2 FFF7FEFF 		bl	Beep
 2135              	.LVL271:
1268:main.c        ****         Beep(10, A2);
 2136              		.loc 1 1268 0
 2137 04f6 7221     		movs	r1, #114
 2138 04f8 0A20     		movs	r0, #10
 2139 04fa FFF7FEFF 		bl	Beep
 2140              	.LVL272:
1269:main.c        ****         Beep(10, Cs2);
 2141              		.loc 1 1269 0
 2142 04fe 5A21     		movs	r1, #90
 2143 0500 0A20     		movs	r0, #10
 2144 0502 FFF7FEFF 		bl	Beep
 2145              	.LVL273:
1270:main.c        ****         Beep(10, Cs1);
ARM GAS  C:\Users\8523~1\AppData\Local\Temp\ccJE8vL2.s 			page 64


 2146              		.loc 1 1270 0
 2147 0506 B421     		movs	r1, #180
 2148 0508 0A20     		movs	r0, #10
 2149 050a FFF7FEFF 		bl	Beep
 2150              	.LVL274:
1271:main.c        ****         Beep(10, F1);
 2151              		.loc 1 1271 0
 2152 050e 8F21     		movs	r1, #143
 2153 0510 0A20     		movs	r0, #10
 2154 0512 FFF7FEFF 		bl	Beep
 2155              	.LVL275:
1272:main.c        ****         Beep(10, A2);
 2156              		.loc 1 1272 0
 2157 0516 7221     		movs	r1, #114
 2158 0518 0A20     		movs	r0, #10
 2159 051a FFF7FEFF 		bl	Beep
 2160              	.LVL276:
1273:main.c        ****         Beep(10, Cs2);
 2161              		.loc 1 1273 0
 2162 051e 5A21     		movs	r1, #90
 2163 0520 0A20     		movs	r0, #10
 2164 0522 FFF7FEFF 		bl	Beep
 2165              	.LVL277:
1274:main.c        ****         Beep(10, Cs1);
 2166              		.loc 1 1274 0
 2167 0526 B421     		movs	r1, #180
 2168 0528 0A20     		movs	r0, #10
 2169 052a FFF7FEFF 		bl	Beep
 2170              	.LVL278:
1275:main.c        ****         Beep(10, F1);
 2171              		.loc 1 1275 0
 2172 052e 8F21     		movs	r1, #143
 2173 0530 0A20     		movs	r0, #10
 2174 0532 FFF7FEFF 		bl	Beep
 2175              	.LVL279:
1276:main.c        ****         Beep(10, A2);
 2176              		.loc 1 1276 0
 2177 0536 7221     		movs	r1, #114
 2178 0538 0A20     		movs	r0, #10
 2179 053a FFF7FEFF 		bl	Beep
 2180              	.LVL280:
1277:main.c        ****         Beep(10, Cs2);
 2181              		.loc 1 1277 0
 2182 053e 5A21     		movs	r1, #90
 2183 0540 0A20     		movs	r0, #10
 2184 0542 FFF7FEFF 		bl	Beep
 2185              	.LVL281:
 2186 0546 08BD     		pop	{r3, pc}
 2187              		.cfi_endproc
 2188              	.LFE95:
 2189              		.size	champions, .-champions
 2190              		.comm	compass,1,1
 2191              		.comm	timepass,4,4
 2192              		.comm	finishtime,4,4
 2193              		.comm	starttime,4,4
 2194              		.comm	online,4,4
 2195              		.comm	onwhite,4,4
ARM GAS  C:\Users\8523~1\AppData\Local\Temp\ccJE8vL2.s 			page 65


 2196              		.comm	onblack,4,4
 2197              		.comm	obstacle,4,4
 2198              		.comm	distance,4,4
 2199              		.global	y
 2200              		.comm	x,4,4
 2201              		.comm	line,4,4
 2202              		.data
 2203              		.align	2
 2204              		.set	.LANCHOR0,. + 0
 2205              		.type	y, %object
 2206              		.size	y, 4
 2207              	y:
 2208 0000 FFFFFFFF 		.word	-1
 2209              		.section	.rodata.str1.4,"aMS",%progbits,1
 2210              		.align	2
 2211              	.LC0:
 2212 0000 25642025 		.ascii	"%d %d\000"
 2212      6400
 2213 0006 0000     		.space	2
 2214              	.LC1:
 2215 0008 5A756D6F 		.ascii	"Zumo021/position \000"
 2215      3032312F 
 2215      706F7369 
 2215      74696F6E 
 2215      2000
 2216 001a 0000     		.space	2
 2217              	.LC2:
 2218 001c 6D617A65 		.ascii	"maze\000"
 2218      00
 2219 0021 000000   		.space	3
 2220              	.LC3:
 2221 0024 5A756D6F 		.ascii	"Zumo021/ready \000"
 2221      3032312F 
 2221      72656164 
 2221      792000
 2222 0033 00       		.space	1
 2223              	.LC4:
 2224 0034 256400   		.ascii	"%d\000"
 2225 0037 00       		.space	1
 2226              	.LC5:
 2227 0038 5A756D6F 		.ascii	"Zumo021/start \000"
 2227      3032312F 
 2227      73746172 
 2227      742000
 2228 0047 00       		.space	1
 2229              	.LC6:
 2230 0048 5A756D6F 		.ascii	"Zumo021/stop \000"
 2230      3032312F 
 2230      73746F70 
 2230      2000
 2231 0056 0000     		.space	2
 2232              	.LC7:
 2233 0058 5A756D6F 		.ascii	"Zumo021/time \000"
 2233      3032312F 
 2233      74696D65 
 2233      2000
 2234              		.text
ARM GAS  C:\Users\8523~1\AppData\Local\Temp\ccJE8vL2.s 			page 66


 2235              	.Letext0:
 2236              		.file 2 "c:\\program files (x86)\\cypress\\psoc creator\\4.2\\psoc creator\\import\\gnu\\arm\\5.4.
 2237              		.file 3 "c:\\program files (x86)\\cypress\\psoc creator\\4.2\\psoc creator\\import\\gnu\\arm\\5.4.
 2238              		.file 4 "Generated_Source\\PSoC5/cytypes.h"
 2239              		.file 5 "..\\FreeRTOS\\Source\\portable\\GCC\\ARM_CM3/portmacro.h"
 2240              		.file 6 ".\\ZumoLibrary/Reflectance.h"
 2241              		.file 7 "Generated_Source\\PSoC5/core_cm3.h"
 2242              		.file 8 ".\\ZumoLibrary/Ultra.h"
 2243              		.file 9 ".\\ZumoLibrary/mqtt_sender.h"
 2244              		.file 10 "Generated_Source\\PSoC5/MotorDirLeft.h"
 2245              		.file 11 "Generated_Source\\PSoC5/MotorDirRight.h"
 2246              		.file 12 "Generated_Source\\PSoC5/PWM.h"
 2247              		.file 13 "..\\FreeRTOS\\Source\\include/task.h"
 2248              		.file 14 ".\\ZumoLibrary/Motor.h"
 2249              		.file 15 ".\\ZumoLibrary/IR.h"
 2250              		.file 16 "Generated_Source\\PSoC5/SW1.h"
 2251              		.file 17 ".\\ZumoLibrary/Beep.h"