ARM GAS  C:\Users\8523~1\AppData\Local\Temp\ccJE8vL2.s 			page 1


   1              		.syntax unified
   2              		.cpu cortex-m3
   3              		.fpu softvfp
   4              		.eabi_attribute 20, 1
   5              		.eabi_attribute 21, 1
   6              		.eabi_attribute 23, 3
   7              		.eabi_attribute 24, 1
   8              		.eabi_attribute 25, 1
   9              		.eabi_attribute 26, 1
  10              		.eabi_attribute 30, 1
  11              		.eabi_attribute 34, 1
  12              		.eabi_attribute 18, 4
  13              		.thumb
  14              		.syntax unified
  15              		.file	"main.c"
  16              		.text
  17              	.Ltext0:
  18              		.cfi_sections	.debug_frame
  19              		.section	.text.sensors,"ax",%progbits
  20              		.align	2
  21              		.global	sensors
  22              		.thumb
  23              		.thumb_func
  24              		.type	sensors, %function
  25              	sensors:
  26              	.LFB86:
  27              		.file 1 "main.c"
   1:main.c        **** /**
   2:main.c        **** * @mainpage ZumoBot Project
   3:main.c        **** * @brief    You can make your own ZumoBot with various sensors.
   4:main.c        **** * @details  <br><br>
   5:main.c        ****     <p>
   6:main.c        ****     <B>General</B><br>
   7:main.c        ****     You will use Pololu Zumo Shields for your robot project with CY8CKIT-059(PSoC 5LP) from Cypress
   8:main.c        ****     library has basic methods of various sensors and communications so that you can make what you w
   9:main.c        ****     <br><br>
  10:main.c        ****     </p>
  11:main.c        ****     
  12:main.c        ****     <p>
  13:main.c        ****     <B>Sensors</B><br>
  14:main.c        ****     &nbsp;Included: <br>
  15:main.c        ****         &nbsp;&nbsp;&nbsp;&nbsp;LSM303D: Accelerometer & Magnetometer<br>
  16:main.c        ****         &nbsp;&nbsp;&nbsp;&nbsp;L3GD20H: Gyroscope<br>
  17:main.c        ****         &nbsp;&nbsp;&nbsp;&nbsp;Reflectance sensor<br>
  18:main.c        ****         &nbsp;&nbsp;&nbsp;&nbsp;Motors
  19:main.c        ****     &nbsp;Wii nunchuck<br>
  20:main.c        ****     &nbsp;TSOP-2236: IR Receiver<br>
  21:main.c        ****     &nbsp;HC-SR04: Ultrasonic sensor<br>
  22:main.c        ****     &nbsp;APDS-9301: Ambient light sensor<br>
  23:main.c        ****     &nbsp;IR LED <br><br><br>
  24:main.c        ****     </p>
  25:main.c        ****     
  26:main.c        ****     <p>
  27:main.c        ****     <B>Communication</B><br>
  28:main.c        ****     I2C, UART, Serial<br>
  29:main.c        ****     </p>
  30:main.c        **** */
ARM GAS  C:\Users\8523~1\AppData\Local\Temp\ccJE8vL2.s 			page 2


  31:main.c        **** 
  32:main.c        **** #include <project.h>
  33:main.c        **** #include <stdio.h>
  34:main.c        **** #include "FreeRTOS.h"
  35:main.c        **** #include "task.h"
  36:main.c        **** #include "Motor.h"
  37:main.c        **** #include "Ultra.h"
  38:main.c        **** #include "Nunchuk.h"
  39:main.c        **** #include "Reflectance.h"
  40:main.c        **** #include "Gyro.h"
  41:main.c        **** #include "Accel_magnet.h"
  42:main.c        **** #include "LSM303D.h"
  43:main.c        **** #include "IR.h"
  44:main.c        **** #include "Beep.h"
  45:main.c        **** #include "mqtt_sender.h"
  46:main.c        **** #include <time.h>
  47:main.c        **** #include <sys/time.h>
  48:main.c        **** #include "serial1.h"
  49:main.c        **** #include <unistd.h>
  50:main.c        **** #include <stdlib.h>
  51:main.c        **** 
  52:main.c        **** //natural notes:
  53:main.c        **** 
  54:main.c        ****             #define G1 255
  55:main.c        ****             #define A1 227
  56:main.c        ****             #define B1 202
  57:main.c        ****             #define C1 191
  58:main.c        ****             #define D1 170
  59:main.c        ****             #define E1 152
  60:main.c        ****             #define F1 143
  61:main.c        ****             #define G2 128
  62:main.c        ****             #define A2 114
  63:main.c        ****             #define B2 101
  64:main.c        ****             #define C2 96
  65:main.c        ****             #define D2 85
  66:main.c        ****             #define E2 76
  67:main.c        ****             #define F2 72
  68:main.c        ****             #define G3 64
  69:main.c        ****             #define A3 57
  70:main.c        ****             #define B3 51
  71:main.c        ****             #define C3 48
  72:main.c        ****             #define D3 43
  73:main.c        ****             #define E3 38
  74:main.c        ****             #define F3 36
  75:main.c        ****             #define G4 32
  76:main.c        ****             
  77:main.c        ****                             //sharp notes:
  78:main.c        ****             
  79:main.c        ****                             #define Gs1 241
  80:main.c        ****                             #define As1 214
  81:main.c        ****                             #define Cs1 180
  82:main.c        ****                             #define Ds1 161
  83:main.c        ****                             #define Fs1 135
  84:main.c        ****                             #define Gs2 120
  85:main.c        ****                             #define As2 107
  86:main.c        ****                             #define Cs2 90
  87:main.c        ****                             #define Ds2 80
ARM GAS  C:\Users\8523~1\AppData\Local\Temp\ccJE8vL2.s 			page 3


  88:main.c        ****                             #define Fs2 68
  89:main.c        ****                             #define Gs3 60
  90:main.c        ****                             #define As3 54
  91:main.c        ****                             #define Cs3 45
  92:main.c        ****                             #define Ds3 40
  93:main.c        ****                             #define Fs3 34
  94:main.c        **** 
  95:main.c        **** /**
  96:main.c        ****  * @file    main.c
  97:main.c        ****  * @brief   
  98:main.c        ****  * @details  ** Enable global interrupt since Zumo library uses interrupts. **<br>&nbsp;&nbsp;&nbsp
  99:main.c        **** */
 100:main.c        **** 
 101:main.c        **** #if 0
 102:main.c        **** 
 103:main.c        ****     // PROJECT // 1:RING //
 104:main.c        **** 
 105:main.c        **** int line, x_or_x;    
 106:main.c        **** int x, y, angle, hittime, distance;
 107:main.c        **** TickType_t starttime, finishtime, timepass;
 108:main.c        **** void sensors();    
 109:main.c        **** void reflectance();
 110:main.c        **** void linefollow();
 111:main.c        **** void ring();
 112:main.c        **** void escape();
 113:main.c        **** void accangles();
 114:main.c        **** void tank_turn_left(uint8, uint32);
 115:main.c        **** void tank_turn_right(uint8, uint32);
 116:main.c        ****     
 117:main.c        **** void zmain(void)
 118:main.c        **** {   
 119:main.c        ****     IR_Start();    
 120:main.c        ****     LSM303D_Start();
 121:main.c        ****     reflectance_start();
 122:main.c        ****     IR_flush();
 123:main.c        ****     Ultra_Start();
 124:main.c        ****     motor_start();
 125:main.c        ****     
 126:main.c        ****     while(SW1_Read() == 1);             // Wait for user button
 127:main.c        ****     
 128:main.c        ****     while(x_or_x != 1)             // Drive to first line
 129:main.c        ****         {
 130:main.c        ****             sensors();
 131:main.c        ****             
 132:main.c        ****             linefollow();  
 133:main.c        ****         }
 134:main.c        ****         
 135:main.c        ****     motor_forward(0, 0);
 136:main.c        ****     print_mqtt("Zumo021/ready ", "zumo");    
 137:main.c        ****     
 138:main.c        ****     while(true)             // Wait for IR signal
 139:main.c        ****         {
 140:main.c        ****             IR_wait();
 141:main.c        ****             
 142:main.c        ****             starttime = xTaskGetTickCount();      
 143:main.c        ****             print_mqtt("Zumo021/start ", "%d", starttime);
 144:main.c        ****             
ARM GAS  C:\Users\8523~1\AppData\Local\Temp\ccJE8vL2.s 			page 4


 145:main.c        ****             motor_forward(255, 100);
 146:main.c        ****             
 147:main.c        ****             break;
 148:main.c        ****         }
 149:main.c        **** 
 150:main.c        ****     while(SW1_Read() == 1)             // Drive
 151:main.c        ****         {  
 152:main.c        ****             sensors();
 153:main.c        ****             
 154:main.c        ****             //accangles();
 155:main.c        ****             
 156:main.c        ****             ring();
 157:main.c        ****             
 158:main.c        ****             escape();
 159:main.c        ****         }
 160:main.c        ****     
 161:main.c        ****     motor_stop();
 162:main.c        ****     
 163:main.c        ****     finishtime = xTaskGetTickCount(); 
 164:main.c        ****     print_mqtt("Zumo021/stop ", "%d", finishtime);
 165:main.c        ****     
 166:main.c        ****     timepass = finishtime - starttime;
 167:main.c        ****     print_mqtt("Zumo021/time ", "%d", timepass);
 168:main.c        ****     
 169:main.c        **** }   
 170:main.c        **** 
 171:main.c        **** void sensors(void)
 172:main.c        ****     {
 173:main.c        ****         struct sensors_ dig;
 174:main.c        ****         
 175:main.c        ****         reflectance_set_threshold(15000, 15000, 15000, 15000, 15000, 15000);
 176:main.c        **** 
 177:main.c        ****         reflectance_digital(&dig);
 178:main.c        ****         
 179:main.c        ****         line = 32*dig.l3 + 16*dig.l2 + 8*dig.l1 + 4*dig.r1 + 2*dig.r2 + 1*dig.r3;
 180:main.c        ****         
 181:main.c        ****         if (dig.l3 == 1 || dig.r3==1)
 182:main.c        ****             {
 183:main.c        ****                 x_or_x = 1;
 184:main.c        ****             }
 185:main.c        ****             
 186:main.c        ****         else x_or_x = 0;
 187:main.c        ****             
 188:main.c        ****         distance = Ultra_GetDistance();    
 189:main.c        ****     }
 190:main.c        ****   
 191:main.c        **** void linefollow(void)
 192:main.c        ****     {   
 193:main.c        ****         if (line == 0b001100)
 194:main.c        ****             {
 195:main.c        ****                 motor_forward(100, 0);
 196:main.c        ****             }
 197:main.c        ****             
 198:main.c        ****         else if (line == 0b011000)
 199:main.c        ****             {
 200:main.c        ****                 motor_turn(50, 200, 0);
 201:main.c        ****             }
ARM GAS  C:\Users\8523~1\AppData\Local\Temp\ccJE8vL2.s 			page 5


 202:main.c        ****             
 203:main.c        ****         else if (line == 0b000110)
 204:main.c        ****             {
 205:main.c        ****                 motor_turn(200, 50, 0);
 206:main.c        ****             }
 207:main.c        ****                 
 208:main.c        ****         else motor_forward(100, 0);
 209:main.c        ****     }
 210:main.c        ****     
 211:main.c        **** void ring(void)
 212:main.c        ****     {
 213:main.c        ****         int r = rand() % 2;
 214:main.c        ****         
 215:main.c        ****         for (int i = 0; i <500; i++)
 216:main.c        ****             {
 217:main.c        ****                 sensors();
 218:main.c        ****                 
 219:main.c        ****                 if (x_or_x != 1 && distance > 30)
 220:main.c        ****                     {
 221:main.c        ****                         motor_forward (200, 1);
 222:main.c        ****                     }
 223:main.c        ****                     
 224:main.c        ****                 else break;
 225:main.c        ****             }
 226:main.c        ****             
 227:main.c        ****         if (r == 0)                                      // turn left
 228:main.c        ****                 {
 229:main.c        ****                     for (int i = 0; i <200; i++)
 230:main.c        ****                         {
 231:main.c        ****                             sensors();
 232:main.c        ****                             
 233:main.c        ****                             if (x_or_x != 1 && distance > 30)
 234:main.c        ****                                 {
 235:main.c        ****                                     motor_turn(0, 255, 1);
 236:main.c        ****                                 }
 237:main.c        ****                                 
 238:main.c        ****                             else break;  
 239:main.c        ****                         }
 240:main.c        ****                 }
 241:main.c        ****             
 242:main.c        ****         if (r == 1)                                      // turn right
 243:main.c        ****             {
 244:main.c        ****                 for (int i = 0; i <200; i++)
 245:main.c        ****                     {
 246:main.c        ****                         sensors();
 247:main.c        ****                         
 248:main.c        ****                         if (x_or_x != 1 && distance > 30)
 249:main.c        ****                             {
 250:main.c        ****                                 motor_turn(255, 0, 1);
 251:main.c        ****                             }
 252:main.c        ****                             
 253:main.c        ****                         else break;     
 254:main.c        ****                     }
 255:main.c        ****             }
 256:main.c        ****         
 257:main.c        ****         if (x_or_x != 1 && distance < 30) //attack
 258:main.c        ****             {
ARM GAS  C:\Users\8523~1\AppData\Local\Temp\ccJE8vL2.s 			page 6


 259:main.c        ****                 motor_forward(255, 0);
 260:main.c        ****             }
 261:main.c        ****     }  
 262:main.c        ****     
 263:main.c        **** void escape(void)
 264:main.c        ****     {
 265:main.c        ****         int r = rand() % 2;
 266:main.c        ****         
 267:main.c        ****         if (x_or_x == 1)
 268:main.c        ****             {
 269:main.c        ****                 motor_backward(255, 200);
 270:main.c        ****             }
 271:main.c        ****             
 272:main.c        ****         if (x_or_x == 1 && r == 0)
 273:main.c        ****                 {
 274:main.c        ****                     tank_turn_left(255, 200);
 275:main.c        ****                     motor_forward(0, 0);
 276:main.c        ****                 }
 277:main.c        ****                 
 278:main.c        ****                 else if (x_or_x == 1 && r == 1)
 279:main.c        ****                 {
 280:main.c        ****                     tank_turn_right(255, 200);
 281:main.c        ****                     motor_forward(0, 0);
 282:main.c        ****                 }     
 283:main.c        ****     }
 284:main.c        ****     
 285:main.c        **** void accangles(void)
 286:main.c        ****     {
 287:main.c        ****         struct accData_ data;
 288:main.c        ****         
 289:main.c        ****         LSM303D_Read_Acc(&data);
 290:main.c        ****         hittime = xTaskGetTickCount();
 291:main.c        ****             
 292:main.c        ****         x = data.accX;
 293:main.c        ****         y = data.accY;
 294:main.c        **** 
 295:main.c        ****         if (x < -20000 || y > 20000 ) 
 296:main.c        ****             {
 297:main.c        ****                 if (x < -20000 && y > 20000 )
 298:main.c        ****                     {
 299:main.c        ****                         angle = 45;
 300:main.c        ****                     }
 301:main.c        ****                 
 302:main.c        ****                 else if (x < -20000)
 303:main.c        ****                     {
 304:main.c        ****                         angle = 0;
 305:main.c        ****                     }
 306:main.c        ****                     
 307:main.c        ****                 else if (y > 20000) 
 308:main.c        ****                     {
 309:main.c        ****                         angle = 90;
 310:main.c        ****                     }
 311:main.c        ****                     
 312:main.c        ****                 print_mqtt("Zumo021/hit ", "%d %d", hittime, angle);    
 313:main.c        ****             } 
 314:main.c        ****             
 315:main.c        ****             else if (y < -20000 || x > 20000)
ARM GAS  C:\Users\8523~1\AppData\Local\Temp\ccJE8vL2.s 			page 7


 316:main.c        ****                 {
 317:main.c        ****                     if (y < -20000 && x > 20000)
 318:main.c        ****                         {
 319:main.c        ****                             angle = 225;
 320:main.c        ****                         }
 321:main.c        ****                         
 322:main.c        ****                     else if (y < -20000)
 323:main.c        ****                         {
 324:main.c        ****                             angle = 270;
 325:main.c        ****                         }
 326:main.c        ****                         
 327:main.c        ****                     else if (x > 20000) 
 328:main.c        ****                         {
 329:main.c        ****                             angle = 180;
 330:main.c        ****                         }
 331:main.c        ****                         
 332:main.c        ****                     print_mqtt("Zumo021/hit ", "%d %d", hittime, angle);  
 333:main.c        ****                 }    
 334:main.c        ****     }
 335:main.c        **** 
 336:main.c        **** void tank_turn_left(uint8 speed, uint32 delay)
 337:main.c        ****     {
 338:main.c        ****         MotorDirLeft_Write(1);      // set LeftMotor backward mode
 339:main.c        ****         MotorDirRight_Write(0);     // set RightMotor forward mode
 340:main.c        ****         PWM_WriteCompare1(speed);
 341:main.c        ****         PWM_WriteCompare2(speed);
 342:main.c        ****         vTaskDelay(delay);
 343:main.c        ****     }
 344:main.c        **** 
 345:main.c        **** void tank_turn_right(uint8 speed, uint32 delay)
 346:main.c        ****     {
 347:main.c        ****         MotorDirLeft_Write(0);      // set LeftMotor forward mode
 348:main.c        ****         MotorDirRight_Write(1);     // set RightMotor backward mode
 349:main.c        ****         PWM_WriteCompare1(speed); 
 350:main.c        ****         PWM_WriteCompare2(speed);
 351:main.c        ****         vTaskDelay(delay);
 352:main.c        ****     }
 353:main.c        ****     
 354:main.c        **** #endif
 355:main.c        **** 
 356:main.c        **** 
 357:main.c        **** #if 0
 358:main.c        **** 
 359:main.c        ****     // PROJECT // 2:LINE FOLLOWER //
 360:main.c        **** 
 361:main.c        **** int line;
 362:main.c        **** int onblack, onwhite, passed; 
 363:main.c        **** TickType_t starttime, finishtime, timepass;
 364:main.c        **** void sensors();
 365:main.c        **** void linecounter();
 366:main.c        **** void drive();
 367:main.c        **** void reveille();
 368:main.c        **** void darude();
 369:main.c        ****     
 370:main.c        **** void zmain(void)
 371:main.c        **** {
 372:main.c        ****     IR_Start();    
ARM GAS  C:\Users\8523~1\AppData\Local\Temp\ccJE8vL2.s 			page 8


 373:main.c        ****     IR_flush();
 374:main.c        ****     reflectance_start();
 375:main.c        ****     motor_start();
 376:main.c        **** 
 377:main.c        ****     while (SW1_Read() == 1);    // Wait for user button
 378:main.c        ****     
 379:main.c        ****     while (true)                // Drive to fisrt line
 380:main.c        ****         {
 381:main.c        ****             sensors();
 382:main.c        ****             drive();
 383:main.c        ****             
 384:main.c        ****             if (line == 0b111111)
 385:main.c        ****                 {
 386:main.c        ****                     motor_forward(0, 0);
 387:main.c        ****                     Beep(100, 100);
 388:main.c        ****                     passed ++;
 389:main.c        ****                     print_mqtt("Zumo021/ready ", "line");
 390:main.c        ****                     break;
 391:main.c        ****                 }
 392:main.c        ****                 
 393:main.c        ****             else motor_forward(100, 0);
 394:main.c        ****         }
 395:main.c        ****     
 396:main.c        ****     while(true)                 // Wait for IR signal
 397:main.c        ****     {
 398:main.c        ****         IR_wait();
 399:main.c        ****         
 400:main.c        ****         reveille();
 401:main.c        ****         
 402:main.c        ****         starttime = xTaskGetTickCount();      
 403:main.c        ****         print_mqtt("Zumo021/start ", "%d", starttime);
 404:main.c        ****         
 405:main.c        ****         motor_forward(100, 100);
 406:main.c        ****         
 407:main.c        ****         break; 
 408:main.c        ****     }
 409:main.c        ****     
 410:main.c        ****     while (true)                // Drive
 411:main.c        ****         {
 412:main.c        ****             sensors();
 413:main.c        ****             linecounter();
 414:main.c        ****             drive();
 415:main.c        ****             
 416:main.c        ****             if (passed == 2 && onblack == 1)
 417:main.c        ****                 {
 418:main.c        ****                     motor_forward(0, 0);
 419:main.c        ****                     
 420:main.c        ****                     finishtime = xTaskGetTickCount();
 421:main.c        ****                     
 422:main.c        ****                     print_mqtt("Zumo021/stop ", "%d", finishtime);
 423:main.c        ****                     
 424:main.c        ****                     timepass = finishtime - starttime;
 425:main.c        ****                     
 426:main.c        ****                     print_mqtt("Zumo021/time ", "%d", timepass);
 427:main.c        ****                     
 428:main.c        ****                     darude();
 429:main.c        ****                     
ARM GAS  C:\Users\8523~1\AppData\Local\Temp\ccJE8vL2.s 			page 9


 430:main.c        ****                     break;
 431:main.c        ****                 }
 432:main.c        ****         }
 433:main.c        ****         
 434:main.c        **** }
 435:main.c        ****     
 436:main.c        **** void sensors(void)
 437:main.c        ****     {
 438:main.c        ****         struct sensors_ dig;
 439:main.c        ****         
 440:main.c        ****         reflectance_set_threshold(15000, 15000, 15000, 15000, 15000, 15000);
 441:main.c        **** 
 442:main.c        ****         reflectance_digital(&dig);
 443:main.c        ****         
 444:main.c        ****         line = 32*dig.l3 + 16*dig.l2 + 8*dig.l1 + 4*dig.r1 + 2*dig.r2 + 1*dig.r3;
 445:main.c        ****     }    
 446:main.c        **** 
 447:main.c        **** void linecounter(void)
 448:main.c        ****     {
 449:main.c        ****         struct sensors_ dig;
 450:main.c        ****         
 451:main.c        ****         reflectance_set_threshold(15000, 15000, 15000, 15000, 15000, 15000);
 452:main.c        ****         
 453:main.c        ****         reflectance_digital(&dig);
 454:main.c        ****         
 455:main.c        ****         if (dig.l3 == 1 && dig.r3 == 1)
 456:main.c        ****             {
 457:main.c        ****                 onblack = 1;               
 458:main.c        ****             }
 459:main.c        ****         
 460:main.c        ****         if (dig.l3 == 0 && dig.r3 == 0)
 461:main.c        ****             {
 462:main.c        ****                 onwhite = 1;    
 463:main.c        ****             }      
 464:main.c        ****             
 465:main.c        ****         if (onblack == 1 && onwhite == 1)
 466:main.c        ****             {
 467:main.c        ****                 passed++;
 468:main.c        ****                 onblack = 0;
 469:main.c        ****             }
 470:main.c        ****             
 471:main.c        ****         else onwhite = 0;   
 472:main.c        ****     }
 473:main.c        ****     
 474:main.c        **** void drive(void)
 475:main.c        ****     { 
 476:main.c        ****         if (line == 0b001100)
 477:main.c        ****             {
 478:main.c        ****                 motor_turn(255, 240, 0);
 479:main.c        ****                 return;
 480:main.c        ****             }  
 481:main.c        ****             
 482:main.c        ****         if (line == 0b011000)
 483:main.c        ****             {
 484:main.c        ****                 motor_turn(0, 150, 0);
 485:main.c        ****                 return;
 486:main.c        ****             }   
ARM GAS  C:\Users\8523~1\AppData\Local\Temp\ccJE8vL2.s 			page 10


 487:main.c        ****             
 488:main.c        ****         if (line == 0b000110)
 489:main.c        ****             {
 490:main.c        ****                 motor_turn(150, 0, 0);
 491:main.c        ****                 return;
 492:main.c        ****             }   
 493:main.c        ****                     
 494:main.c        ****         if (line == 0b110000)
 495:main.c        ****             {
 496:main.c        ****                 motor_turn(0, 255, 0);
 497:main.c        ****                 return;
 498:main.c        ****             }   
 499:main.c        ****                         
 500:main.c        ****         if (line == 0b000011)
 501:main.c        ****             {
 502:main.c        ****                 motor_turn(255, 0, 0);
 503:main.c        ****                 return;
 504:main.c        ****             }
 505:main.c        ****     }
 506:main.c        ****     
 507:main.c        **** void reveille(void)
 508:main.c        ****     {
 509:main.c        ****         Beep(200, G1);
 510:main.c        ****         Beep(200, C1);
 511:main.c        ****         Beep(100, E1);
 512:main.c        ****         Beep(100, C1);
 513:main.c        ****         Beep(200, G1);
 514:main.c        ****         
 515:main.c        ****         Beep(200, E1);
 516:main.c        ****         Beep(200, C1);
 517:main.c        ****         Beep(100, E1);
 518:main.c        ****         Beep(100, C1);
 519:main.c        ****         Beep(200, G1);
 520:main.c        ****         
 521:main.c        ****         Beep(200, E1);
 522:main.c        ****         Beep(200, C1);
 523:main.c        ****         Beep(100, E1);
 524:main.c        ****         Beep(100, C1);
 525:main.c        ****         Beep(200, G1);
 526:main.c        ****         
 527:main.c        ****         Beep(200, C1);
 528:main.c        ****         Beep(400, E1);
 529:main.c        ****         Beep(200, C1);
 530:main.c        ****     }
 531:main.c        ****     
 532:main.c        **** void darude(void)
 533:main.c        ****     {
 534:main.c        ****         Beep(50, Gs2);
 535:main.c        ****         vTaskDelay(50);
 536:main.c        ****         Beep(50, Gs2);
 537:main.c        ****         vTaskDelay(50);
 538:main.c        ****         Beep(50, Gs2);
 539:main.c        ****         vTaskDelay(50);
 540:main.c        ****         Beep(50, Gs2);
 541:main.c        ****         vTaskDelay(50);
 542:main.c        ****         Beep(50, Gs2);
 543:main.c        ****         vTaskDelay(150);//
ARM GAS  C:\Users\8523~1\AppData\Local\Temp\ccJE8vL2.s 			page 11


 544:main.c        ****         
 545:main.c        ****         Beep(50, Gs2);
 546:main.c        ****         vTaskDelay(50);
 547:main.c        ****         Beep(50, Gs2);
 548:main.c        ****         vTaskDelay(50);
 549:main.c        ****         Beep(50, Gs2);
 550:main.c        ****         vTaskDelay(50);
 551:main.c        ****         Beep(50, Gs2);
 552:main.c        ****         vTaskDelay(50);
 553:main.c        ****         Beep(50, Gs2);
 554:main.c        ****         vTaskDelay(50);
 555:main.c        ****         Beep(50, Gs2);
 556:main.c        ****         vTaskDelay(50);
 557:main.c        ****         Beep(50, Gs2);
 558:main.c        ****         vTaskDelay(150);//
 559:main.c        ****         
 560:main.c        ****         Beep(50, Cs2);
 561:main.c        ****         vTaskDelay(50);
 562:main.c        ****         Beep(50, Cs2);
 563:main.c        ****         vTaskDelay(50);
 564:main.c        ****         Beep(50, Cs2);
 565:main.c        ****         vTaskDelay(50);
 566:main.c        ****         Beep(50, Cs2);
 567:main.c        ****         vTaskDelay(50);
 568:main.c        ****         Beep(50, Cs2);
 569:main.c        ****         vTaskDelay(50);
 570:main.c        ****         Beep(50, Cs2);
 571:main.c        ****         vTaskDelay(50);
 572:main.c        ****         Beep(50, Cs2);
 573:main.c        ****         vTaskDelay(150);//
 574:main.c        ****         
 575:main.c        ****         Beep(50, B2);
 576:main.c        ****         vTaskDelay(50);
 577:main.c        ****         Beep(50, B2);
 578:main.c        ****         vTaskDelay(50);
 579:main.c        ****         Beep(50, B2);
 580:main.c        ****         vTaskDelay(50);
 581:main.c        ****         Beep(50, B2);
 582:main.c        ****         vTaskDelay(50);
 583:main.c        ****         Beep(50, B2);
 584:main.c        ****         vTaskDelay(50);
 585:main.c        ****         Beep(50, B2);
 586:main.c        ****         vTaskDelay(50);
 587:main.c        ****         Beep(50, B2);
 588:main.c        ****         vTaskDelay(150);//
 589:main.c        ****         
 590:main.c        ****         Beep(50, Fs1);
 591:main.c        ****         vTaskDelay(50);
 592:main.c        ****         Beep(50, Fs1);
 593:main.c        ****         vTaskDelay(50);
 594:main.c        ****         Beep(50, Gs2);
 595:main.c        ****         vTaskDelay(50);
 596:main.c        ****         Beep(50, Gs2);
 597:main.c        ****         vTaskDelay(50);
 598:main.c        ****         Beep(50, Gs2);
 599:main.c        ****         vTaskDelay(50);
 600:main.c        ****         Beep(50, Gs2);
ARM GAS  C:\Users\8523~1\AppData\Local\Temp\ccJE8vL2.s 			page 12


 601:main.c        ****         vTaskDelay(50);
 602:main.c        ****         Beep(50, Gs2);
 603:main.c        ****         vTaskDelay(150);//
 604:main.c        ****         
 605:main.c        ****         Beep(50, Gs2);
 606:main.c        ****         vTaskDelay(50);
 607:main.c        ****         Beep(50, Gs2);
 608:main.c        ****         vTaskDelay(50);
 609:main.c        ****         Beep(50, Gs2);
 610:main.c        ****         vTaskDelay(50);
 611:main.c        ****         Beep(50, Gs2);
 612:main.c        ****         vTaskDelay(50);
 613:main.c        ****         Beep(50, Gs2);
 614:main.c        ****         vTaskDelay(50);
 615:main.c        ****         Beep(50, Gs2);
 616:main.c        ****         vTaskDelay(50);
 617:main.c        ****         Beep(50, Gs2);
 618:main.c        ****         vTaskDelay(150);//
 619:main.c        ****         
 620:main.c        ****         Beep(50, Cs2);
 621:main.c        ****         vTaskDelay(50);
 622:main.c        ****         Beep(50, Cs2);
 623:main.c        ****         vTaskDelay(50); //
 624:main.c        ****         
 625:main.c        ****         Beep(50, Gs2);
 626:main.c        ****         vTaskDelay(50);
 627:main.c        ****         Beep(50, Gs2);
 628:main.c        ****         vTaskDelay(50);
 629:main.c        ****         Beep(50, Gs2);
 630:main.c        ****         vTaskDelay(50);
 631:main.c        ****         Beep(50, Gs2);
 632:main.c        ****         vTaskDelay(50);
 633:main.c        ****         Beep(50, Gs2);
 634:main.c        ****         vTaskDelay(150);//
 635:main.c        ****         
 636:main.c        ****         Beep(50, Gs2);
 637:main.c        ****         vTaskDelay(50);
 638:main.c        ****         Beep(50, Gs2);
 639:main.c        ****         vTaskDelay(50);
 640:main.c        ****         Beep(50, Gs2);
 641:main.c        ****         vTaskDelay(50);
 642:main.c        ****         Beep(50, Gs2);
 643:main.c        ****         vTaskDelay(50);
 644:main.c        ****         Beep(50, Gs2);
 645:main.c        ****         vTaskDelay(50);
 646:main.c        ****         Beep(50, Gs2);
 647:main.c        ****         vTaskDelay(50);
 648:main.c        ****         Beep(50, Gs2);
 649:main.c        ****         vTaskDelay(150);//
 650:main.c        ****     }
 651:main.c        ****     
 652:main.c        **** #endif    
 653:main.c        **** 
 654:main.c        **** 
 655:main.c        **** #if 1
 656:main.c        **** 
 657:main.c        ****     // PROJECT // 3:MAZE //
ARM GAS  C:\Users\8523~1\AppData\Local\Temp\ccJE8vL2.s 			page 13


 658:main.c        ****    
 659:main.c        **** int line;
 660:main.c        **** int x, y = -1, distance, obstacle;
 661:main.c        **** int onblack, onwhite, online;
 662:main.c        **** TickType_t starttime, finishtime, timepass;
 663:main.c        **** char compass;
 664:main.c        **** void sensors();
 665:main.c        **** void linedetector();
 666:main.c        **** void coordinatecounter();
 667:main.c        **** void drive();
 668:main.c        **** void turn_left();
 669:main.c        **** void turn_right();
 670:main.c        **** void tank_turn_left(uint8, uint32);
 671:main.c        **** void tank_turn_right(uint8, uint32);
 672:main.c        **** void reveille();
 673:main.c        **** void champions();
 674:main.c        ****     
 675:main.c        **** void zmain(void)
 676:main.c        **** {
 677:main.c        ****     
 678:main.c        ****     IR_Start();    
 679:main.c        ****     IR_flush();
 680:main.c        ****     Ultra_Start();
 681:main.c        ****     reflectance_start();
 682:main.c        ****     motor_start();
 683:main.c        ****     
 684:main.c        ****     while (SW1_Read() == 1);    // Wait for user button
 685:main.c        ****     
 686:main.c        ****     compass = 'N';
 687:main.c        ****     
 688:main.c        ****     while (true)                // Drive to fisrt line
 689:main.c        ****         {
 690:main.c        ****             sensors();
 691:main.c        ****             drive();
 692:main.c        ****             
 693:main.c        ****             if(line == 0b111111)
 694:main.c        ****                 {
 695:main.c        ****                     motor_forward(0, 0);
 696:main.c        ****                     Beep(100, 100);
 697:main.c        ****                     print_mqtt("Zumo021/ready ", "maze");
 698:main.c        ****                     break;
 699:main.c        ****                 }
 700:main.c        ****         }
 701:main.c        ****         
 702:main.c        ****     while(true)                 // Wait for IR signal
 703:main.c        ****         {
 704:main.c        ****             IR_wait();
 705:main.c        ****             //reveille();
 706:main.c        ****             
 707:main.c        ****             starttime = xTaskGetTickCount();      
 708:main.c        ****             print_mqtt("Zumo021/start ", "%d", starttime);
 709:main.c        ****             
 710:main.c        ****             break;
 711:main.c        ****         }
 712:main.c        ****             
 713:main.c        ****     while (true)                // Drive
 714:main.c        ****     {
ARM GAS  C:\Users\8523~1\AppData\Local\Temp\ccJE8vL2.s 			page 14


 715:main.c        ****         sensors();
 716:main.c        ****         
 717:main.c        ****         linedetector();
 718:main.c        ****         
 719:main.c        ****         coordinatecounter();
 720:main.c        ****         
 721:main.c        ****         drive();
 722:main.c        ****         
 723:main.c        ****         if (line == 0b000000 && y == 13 && x == 0)
 724:main.c        ****             {
 725:main.c        ****                 motor_stop();
 726:main.c        ****                 
 727:main.c        ****                 print_mqtt("Zumo021/position ", "%d %d", x, y);
 728:main.c        ****                 
 729:main.c        ****                 finishtime = xTaskGetTickCount();
 730:main.c        ****                     
 731:main.c        ****                 print_mqtt("Zumo021/stop ", "%d", finishtime);
 732:main.c        ****                 
 733:main.c        ****                 timepass = finishtime - starttime;
 734:main.c        ****                 
 735:main.c        ****                 print_mqtt("Zumo021/time ", "%d", timepass);
 736:main.c        ****                 
 737:main.c        ****                 //champions();
 738:main.c        ****                 break;
 739:main.c        ****             }
 740:main.c        ****     }
 741:main.c        **** }
 742:main.c        **** 
 743:main.c        **** void sensors(void)
 744:main.c        ****     {
  28              		.loc 1 744 0
  29              		.cfi_startproc
  30              		@ args = 0, pretend = 0, frame = 16
  31              		@ frame_needed = 0, uses_anonymous_args = 0
  32 0000 00B5     		push	{lr}
  33              		.cfi_def_cfa_offset 4
  34              		.cfi_offset 14, -4
  35 0002 87B0     		sub	sp, sp, #28
  36              		.cfi_def_cfa_offset 32
 745:main.c        ****         struct sensors_ dig;
 746:main.c        ****         
 747:main.c        ****         reflectance_set_threshold(15000, 15000, 15000, 15000, 15000, 15000);
  37              		.loc 1 747 0
  38 0004 43F69820 		movw	r0, #15000
  39 0008 0190     		str	r0, [sp, #4]
  40 000a 0090     		str	r0, [sp]
  41 000c 0346     		mov	r3, r0
  42 000e 0246     		mov	r2, r0
  43 0010 0146     		mov	r1, r0
  44 0012 FFF7FEFF 		bl	reflectance_set_threshold
  45              	.LVL0:
 748:main.c        **** 
 749:main.c        ****         reflectance_digital(&dig);
  46              		.loc 1 749 0
  47 0016 03A8     		add	r0, sp, #12
  48 0018 FFF7FEFF 		bl	reflectance_digital
  49              	.LVL1:
ARM GAS  C:\Users\8523~1\AppData\Local\Temp\ccJE8vL2.s 			page 15


 750:main.c        **** 
 751:main.c        ****         line = 32*dig.l3 + 16*dig.l2 + 8*dig.l1 + 4*dig.r1 + 2*dig.r2 + 1*dig.r3;   // set lin valu
  50              		.loc 1 751 0
  51 001c BDF80C20 		ldrh	r2, [sp, #12]
  52 0020 BDF80E30 		ldrh	r3, [sp, #14]
  53 0024 03EB4203 		add	r3, r3, r2, lsl #1
  54 0028 BDF81020 		ldrh	r2, [sp, #16]
  55 002c 02EB4303 		add	r3, r2, r3, lsl #1
  56 0030 BDF81210 		ldrh	r1, [sp, #18]
  57 0034 01EB4303 		add	r3, r1, r3, lsl #1
  58 0038 BDF81420 		ldrh	r2, [sp, #20]
  59 003c 02EB4302 		add	r2, r2, r3, lsl #1
  60 0040 BDF81630 		ldrh	r3, [sp, #22]
  61 0044 03EB4203 		add	r3, r3, r2, lsl #1
  62 0048 084A     		ldr	r2, .L5
  63 004a 1360     		str	r3, [r2]
 752:main.c        ****       
 753:main.c        ****         distance = Ultra_GetDistance(); // set distance value
  64              		.loc 1 753 0
  65 004c FFF7FEFF 		bl	Ultra_GetDistance
  66              	.LVL2:
  67 0050 074B     		ldr	r3, .L5+4
  68 0052 1860     		str	r0, [r3]
 754:main.c        ****                 
 755:main.c        ****         if (distance < 15)
  69              		.loc 1 755 0
  70 0054 0E28     		cmp	r0, #14
  71 0056 03DC     		bgt	.L2
 756:main.c        ****             {
 757:main.c        ****                 obstacle = 1;
  72              		.loc 1 757 0
  73 0058 0122     		movs	r2, #1
  74 005a 064B     		ldr	r3, .L5+8
  75 005c 1A60     		str	r2, [r3]
  76 005e 02E0     		b	.L1
  77              	.L2:
 758:main.c        ****             }
 759:main.c        ****             
 760:main.c        ****         else obstacle = 0;    
  78              		.loc 1 760 0
  79 0060 0022     		movs	r2, #0
  80 0062 044B     		ldr	r3, .L5+8
  81 0064 1A60     		str	r2, [r3]
  82              	.L1:
 761:main.c        ****             
 762:main.c        ****     }
  83              		.loc 1 762 0
  84 0066 07B0     		add	sp, sp, #28
  85              		.cfi_def_cfa_offset 4
  86              		@ sp needed
  87 0068 5DF804FB 		ldr	pc, [sp], #4
  88              	.L6:
  89              		.align	2
  90              	.L5:
  91 006c 00000000 		.word	line
  92 0070 00000000 		.word	distance
  93 0074 00000000 		.word	obstacle
ARM GAS  C:\Users\8523~1\AppData\Local\Temp\ccJE8vL2.s 			page 16


  94              		.cfi_endproc
  95              	.LFE86:
  96              		.size	sensors, .-sensors
  97              		.section	.text.linedetector,"ax",%progbits
  98              		.align	2
  99              		.global	linedetector
 100              		.thumb
 101              		.thumb_func
 102              		.type	linedetector, %function
 103              	linedetector:
 104              	.LFB87:
 763:main.c        ****     
 764:main.c        **** void linedetector(void)
 765:main.c        ****     {
 105              		.loc 1 765 0
 106              		.cfi_startproc
 107              		@ args = 0, pretend = 0, frame = 0
 108              		@ frame_needed = 0, uses_anonymous_args = 0
 109 0000 08B5     		push	{r3, lr}
 110              		.cfi_def_cfa_offset 8
 111              		.cfi_offset 3, -8
 112              		.cfi_offset 14, -4
 766:main.c        ****         
 767:main.c        ****         if (line == 0b001100 || line == 0b011000 || line == 0b000110)
 113              		.loc 1 767 0
 114 0002 1C4B     		ldr	r3, .L14
 115 0004 1B68     		ldr	r3, [r3]
 116 0006 0C2B     		cmp	r3, #12
 117 0008 03D0     		beq	.L8
 118              		.loc 1 767 0 is_stmt 0 discriminator 1
 119 000a 182B     		cmp	r3, #24
 120 000c 01D0     		beq	.L8
 121              		.loc 1 767 0 discriminator 2
 122 000e 062B     		cmp	r3, #6
 123 0010 05D1     		bne	.L9
 124              	.L8:
 768:main.c        ****             {
 769:main.c        ****                 onwhite = 1;
 125              		.loc 1 769 0 is_stmt 1
 126 0012 0121     		movs	r1, #1
 127 0014 184A     		ldr	r2, .L14+4
 128 0016 1160     		str	r1, [r2]
 770:main.c        ****                 onblack = 0;
 129              		.loc 1 770 0
 130 0018 0021     		movs	r1, #0
 131 001a 184A     		ldr	r2, .L14+8
 132 001c 1160     		str	r1, [r2]
 133              	.L9:
 771:main.c        ****             }      
 772:main.c        **** 
 773:main.c        ****         if (line == 0b111111 || line == 0b011111 || line == 0b111110 || line == 0b001111 || line ==
 134              		.loc 1 773 0
 135 001e 3F2B     		cmp	r3, #63
 136 0020 0BD0     		beq	.L10
 137              		.loc 1 773 0 is_stmt 0 discriminator 1
 138 0022 1F2B     		cmp	r3, #31
 139 0024 09D0     		beq	.L10
ARM GAS  C:\Users\8523~1\AppData\Local\Temp\ccJE8vL2.s 			page 17


 140              		.loc 1 773 0 discriminator 2
 141 0026 3E2B     		cmp	r3, #62
 142 0028 07D0     		beq	.L10
 143              		.loc 1 773 0 discriminator 3
 144 002a 0F2B     		cmp	r3, #15
 145 002c 05D0     		beq	.L10
 146              		.loc 1 773 0 discriminator 4
 147 002e 3C2B     		cmp	r3, #60
 148 0030 03D0     		beq	.L10
 149              		.loc 1 773 0 discriminator 5
 150 0032 072B     		cmp	r3, #7
 151 0034 01D0     		beq	.L10
 152              		.loc 1 773 0 discriminator 6
 153 0036 382B     		cmp	r3, #56
 154 0038 02D1     		bne	.L11
 155              	.L10:
 774:main.c        ****             {
 775:main.c        ****                 onblack = 1;
 156              		.loc 1 775 0 is_stmt 1
 157 003a 0122     		movs	r2, #1
 158 003c 0F4B     		ldr	r3, .L14+8
 159 003e 1A60     		str	r2, [r3]
 160              	.L11:
 776:main.c        ****             }
 777:main.c        ****     
 778:main.c        ****         if (onwhite == 1 && onblack == 1)
 161              		.loc 1 778 0
 162 0040 0D4B     		ldr	r3, .L14+4
 163 0042 1B68     		ldr	r3, [r3]
 164 0044 012B     		cmp	r3, #1
 165 0046 13D1     		bne	.L7
 166              		.loc 1 778 0 is_stmt 0 discriminator 1
 167 0048 0C4B     		ldr	r3, .L14+8
 168 004a 1B68     		ldr	r3, [r3]
 169 004c 012B     		cmp	r3, #1
 170 004e 0FD1     		bne	.L7
 779:main.c        ****             {
 780:main.c        ****                 online = 1;
 171              		.loc 1 780 0 is_stmt 1
 172 0050 0122     		movs	r2, #1
 173 0052 0B4B     		ldr	r3, .L14+12
 174 0054 1A60     		str	r2, [r3]
 781:main.c        ****                 onwhite = 0;
 175              		.loc 1 781 0
 176 0056 0023     		movs	r3, #0
 177 0058 074A     		ldr	r2, .L14+4
 178 005a 1360     		str	r3, [r2]
 782:main.c        ****                 onblack = 0;
 179              		.loc 1 782 0
 180 005c 074A     		ldr	r2, .L14+8
 181 005e 1360     		str	r3, [r2]
 783:main.c        ****                 print_mqtt("Zumo021/position ", "%d %d", x, y);
 182              		.loc 1 783 0
 183 0060 084B     		ldr	r3, .L14+16
 184 0062 1B68     		ldr	r3, [r3]
 185 0064 084A     		ldr	r2, .L14+20
 186 0066 1268     		ldr	r2, [r2]
ARM GAS  C:\Users\8523~1\AppData\Local\Temp\ccJE8vL2.s 			page 18


 187 0068 0849     		ldr	r1, .L14+24
 188 006a 0948     		ldr	r0, .L14+28
 189 006c FFF7FEFF 		bl	print_mqtt
 190              	.LVL3:
 191              	.L7:
 192 0070 08BD     		pop	{r3, pc}
 193              	.L15:
 194 0072 00BF     		.align	2
 195              	.L14:
 196 0074 00000000 		.word	line
 197 0078 00000000 		.word	onwhite
 198 007c 00000000 		.word	onblack
 199 0080 00000000 		.word	online
 200 0084 00000000 		.word	.LANCHOR0
 201 0088 00000000 		.word	x
 202 008c 00000000 		.word	.LC0
 203 0090 08000000 		.word	.LC1
 204              		.cfi_endproc
 205              	.LFE87:
 206              		.size	linedetector, .-linedetector
 207              		.section	.text.coordinatecounter,"ax",%progbits
 208              		.align	2
 209              		.global	coordinatecounter
 210              		.thumb
 211              		.thumb_func
 212              		.type	coordinatecounter, %function
 213              	coordinatecounter:
 214              	.LFB88:
 784:main.c        ****             }        
 785:main.c        ****     }
 786:main.c        ****     
 787:main.c        **** void coordinatecounter(void)
 788:main.c        ****     {
 215              		.loc 1 788 0
 216              		.cfi_startproc
 217              		@ args = 0, pretend = 0, frame = 0
 218              		@ frame_needed = 0, uses_anonymous_args = 0
 219              		@ link register save eliminated.
 789:main.c        ****         if (online == 1 && compass == 'N')
 220              		.loc 1 789 0
 221 0000 174B     		ldr	r3, .L20
 222 0002 1B68     		ldr	r3, [r3]
 223 0004 012B     		cmp	r3, #1
 224 0006 0CD1     		bne	.L17
 225              		.loc 1 789 0 is_stmt 0 discriminator 1
 226 0008 164B     		ldr	r3, .L20+4
 227 000a 1B78     		ldrb	r3, [r3]	@ zero_extendqisi2
 228 000c 4E2B     		cmp	r3, #78
 229 000e 08D1     		bne	.L17
 790:main.c        ****             {
 791:main.c        ****                 y++;
 230              		.loc 1 791 0 is_stmt 1
 231 0010 154A     		ldr	r2, .L20+8
 232 0012 1368     		ldr	r3, [r2]
 233 0014 0133     		adds	r3, r3, #1
 234 0016 1360     		str	r3, [r2]
 792:main.c        ****                 online = 0;
ARM GAS  C:\Users\8523~1\AppData\Local\Temp\ccJE8vL2.s 			page 19


 235              		.loc 1 792 0
 236 0018 0023     		movs	r3, #0
 237 001a 114A     		ldr	r2, .L20
 238 001c 1360     		str	r3, [r2]
 793:main.c        ****                 onblack = 0;
 239              		.loc 1 793 0
 240 001e 134A     		ldr	r2, .L20+12
 241 0020 1360     		str	r3, [r2]
 242              	.L17:
 794:main.c        ****                 //Beep(50,250);
 795:main.c        ****             }
 796:main.c        ****             
 797:main.c        ****         if (online == 1 && compass == 'W')
 243              		.loc 1 797 0
 244 0022 0F4B     		ldr	r3, .L20
 245 0024 1B68     		ldr	r3, [r3]
 246 0026 012B     		cmp	r3, #1
 247 0028 0AD1     		bne	.L18
 248              		.loc 1 797 0 is_stmt 0 discriminator 1
 249 002a 0E4B     		ldr	r3, .L20+4
 250 002c 1B78     		ldrb	r3, [r3]	@ zero_extendqisi2
 251 002e 572B     		cmp	r3, #87
 252 0030 06D1     		bne	.L18
 798:main.c        ****             {
 799:main.c        ****                 x--;
 253              		.loc 1 799 0 is_stmt 1
 254 0032 0F4A     		ldr	r2, .L20+16
 255 0034 1368     		ldr	r3, [r2]
 256 0036 013B     		subs	r3, r3, #1
 257 0038 1360     		str	r3, [r2]
 800:main.c        ****                 online = 0;
 258              		.loc 1 800 0
 259 003a 0022     		movs	r2, #0
 260 003c 084B     		ldr	r3, .L20
 261 003e 1A60     		str	r2, [r3]
 262              	.L18:
 801:main.c        ****                 //Beep(50,100);
 802:main.c        ****             }
 803:main.c        ****             
 804:main.c        ****         if (online == 1 && compass == 'E')
 263              		.loc 1 804 0
 264 0040 074B     		ldr	r3, .L20
 265 0042 1B68     		ldr	r3, [r3]
 266 0044 012B     		cmp	r3, #1
 267 0046 0AD1     		bne	.L16
 268              		.loc 1 804 0 is_stmt 0 discriminator 1
 269 0048 064B     		ldr	r3, .L20+4
 270 004a 1B78     		ldrb	r3, [r3]	@ zero_extendqisi2
 271 004c 452B     		cmp	r3, #69
 272 004e 06D1     		bne	.L16
 805:main.c        ****             {
 806:main.c        ****                 x++;
 273              		.loc 1 806 0 is_stmt 1
 274 0050 074A     		ldr	r2, .L20+16
 275 0052 1368     		ldr	r3, [r2]
 276 0054 0133     		adds	r3, r3, #1
 277 0056 1360     		str	r3, [r2]
ARM GAS  C:\Users\8523~1\AppData\Local\Temp\ccJE8vL2.s 			page 20


 807:main.c        ****                 online = 0;
 278              		.loc 1 807 0
 279 0058 0022     		movs	r2, #0
 280 005a 014B     		ldr	r3, .L20
 281 005c 1A60     		str	r2, [r3]
 282              	.L16:
 283 005e 7047     		bx	lr
 284              	.L21:
 285              		.align	2
 286              	.L20:
 287 0060 00000000 		.word	online
 288 0064 00000000 		.word	compass
 289 0068 00000000 		.word	.LANCHOR0
 290 006c 00000000 		.word	onblack
 291 0070 00000000 		.word	x
 292              		.cfi_endproc
 293              	.LFE88:
 294              		.size	coordinatecounter, .-coordinatecounter
 295              		.section	.text.tank_turn_left,"ax",%progbits
 296              		.align	2
 297              		.global	tank_turn_left
 298              		.thumb
 299              		.thumb_func
 300              		.type	tank_turn_left, %function
 301              	tank_turn_left:
 302              	.LFB92:
 808:main.c        ****                 //Beep(50,50);
 809:main.c        ****                 //Beep(50,150);
 810:main.c        ****             }    
 811:main.c        ****     }
 812:main.c        ****     
 813:main.c        **** void drive(void)
 814:main.c        ****     {
 815:main.c        ****         
 816:main.c        ****         if (line == 0b001100)
 817:main.c        ****             {
 818:main.c        ****                 motor_forward(75, 0);
 819:main.c        ****                 return;
 820:main.c        ****             }  
 821:main.c        ****             
 822:main.c        ****         if (line == 0b011000)
 823:main.c        ****             {
 824:main.c        ****                 motor_turn(0, 100, 0);
 825:main.c        ****                 return;  
 826:main.c        ****             }   
 827:main.c        ****             
 828:main.c        ****         if (line == 0b000110)
 829:main.c        ****             {
 830:main.c        ****                 motor_turn(100, 0, 0);
 831:main.c        ****                 return;
 832:main.c        ****             }   
 833:main.c        ****                     
 834:main.c        ****         if (line == 0b110000 || line == 0b010000)
 835:main.c        ****             {
 836:main.c        ****                 motor_turn(0, 150, 0);
 837:main.c        ****                 return;
 838:main.c        ****             }   
ARM GAS  C:\Users\8523~1\AppData\Local\Temp\ccJE8vL2.s 			page 21


 839:main.c        ****                         
 840:main.c        ****         if (line == 0b000011 || line == 0b000010)
 841:main.c        ****             {
 842:main.c        ****                 motor_turn(150, 0, 0);
 843:main.c        ****                 return;
 844:main.c        ****             }
 845:main.c        ****                             
 846:main.c        ****         if (line == 0b111111 && obstacle == 1 && compass == 'N')    // turn if north and obstackle!
 847:main.c        ****             {
 848:main.c        ****                 if (x >= 0)
 849:main.c        ****                     {
 850:main.c        ****                         vTaskDelay(250);
 851:main.c        ****                     
 852:main.c        ****                         turn_left();
 853:main.c        ****                         
 854:main.c        ****                         compass = 'W';
 855:main.c        ****                                             
 856:main.c        ****                         if (obstacle == 1)  // check corner
 857:main.c        ****                             {
 858:main.c        ****                                 turn_right();
 859:main.c        ****                                 turn_right();
 860:main.c        ****                                 compass = 'E';    
 861:main.c        ****                             }
 862:main.c        ****                     }
 863:main.c        ****                     
 864:main.c        ****                     else if (x < 0)
 865:main.c        ****                         {
 866:main.c        ****                             vTaskDelay(250);
 867:main.c        ****                             
 868:main.c        ****                             turn_right();
 869:main.c        ****                                 
 870:main.c        ****                             compass = 'E';
 871:main.c        ****                                                     
 872:main.c        ****                                 if (obstacle == 1)  // check corner
 873:main.c        ****                                     {
 874:main.c        ****                                         turn_left();
 875:main.c        ****                                         turn_left();
 876:main.c        ****                                         compass = 'W';    
 877:main.c        ****                                     }      
 878:main.c        ****                         }
 879:main.c        ****                 
 880:main.c        ****                 return;    
 881:main.c        ****             }  
 882:main.c        ****                                     
 883:main.c        ****         if (line == 0b111111 && obstacle == 0 && compass == 'W' && x != -3)   // turn right if west
 884:main.c        ****             {
 885:main.c        ****                 vTaskDelay(250);
 886:main.c        ****                                                         
 887:main.c        ****                 turn_right();
 888:main.c        ****                     
 889:main.c        ****                 compass = 'N';
 890:main.c        ****                                         
 891:main.c        ****                 if (obstacle == 1)  // check corner
 892:main.c        ****                     {
 893:main.c        ****                         turn_left();                         
 894:main.c        ****                         compass = 'W';
 895:main.c        ****                     }
ARM GAS  C:\Users\8523~1\AppData\Local\Temp\ccJE8vL2.s 			page 22


 896:main.c        ****                     
 897:main.c        ****                 return;
 898:main.c        ****             }
 899:main.c        ****             
 900:main.c        ****         if ((line == 0b111111 && obstacle == 1 && compass == 'W') || (line == 0b111111 && x == -3 &
 901:main.c        ****             {
 902:main.c        ****                 vTaskDelay(250);
 903:main.c        ****                                                         
 904:main.c        ****                 turn_right();
 905:main.c        ****                                            
 906:main.c        ****                 compass = 'N';
 907:main.c        ****                     
 908:main.c        ****                 if (obstacle == 1)  // check corner
 909:main.c        ****                     {
 910:main.c        ****                         turn_right();                     
 911:main.c        ****                         compass = 'E';
 912:main.c        ****                     }
 913:main.c        ****                     
 914:main.c        ****                     return;
 915:main.c        ****             }
 916:main.c        ****             
 917:main.c        ****         if (line == 0b111111 && obstacle == 0 && compass == 'E' && x != 3)    // turn left if east 
 918:main.c        ****             {
 919:main.c        ****                 vTaskDelay(250);
 920:main.c        ****                                                         
 921:main.c        ****                 turn_left();
 922:main.c        ****                                            
 923:main.c        ****                 compass = 'N';
 924:main.c        ****                     
 925:main.c        ****                 if (obstacle == 1)  // check corner
 926:main.c        ****                     {
 927:main.c        ****                         turn_right();                    
 928:main.c        ****                         compass = 'E';
 929:main.c        ****                     }
 930:main.c        ****                     
 931:main.c        ****                 return;
 932:main.c        ****             }
 933:main.c        ****             
 934:main.c        ****         if ((line == 0b111111 && obstacle == 1 && compass == 'E') || (line == 0b111111 && x == 3 &&
 935:main.c        ****             {
 936:main.c        ****                 vTaskDelay(250);
 937:main.c        ****                                                         
 938:main.c        ****                 turn_left();
 939:main.c        ****                                            
 940:main.c        ****                 compass = 'N';
 941:main.c        ****                     
 942:main.c        ****                 if (obstacle == 1)  // check corner
 943:main.c        ****                     {
 944:main.c        ****                         turn_left();                   
 945:main.c        ****                         compass = 'W';
 946:main.c        ****                     }
 947:main.c        ****                     
 948:main.c        ****                 return;
 949:main.c        ****             }
 950:main.c        ****            
 951:main.c        ****         if ((line == 0b011111 || line == 0b111110 || line == 0b001111 || line == 0b111100 || line =
 952:main.c        ****             {
ARM GAS  C:\Users\8523~1\AppData\Local\Temp\ccJE8vL2.s 			page 23


 953:main.c        ****                 vTaskDelay(50);
 954:main.c        ****                         
 955:main.c        ****                     sensors();
 956:main.c        ****                     
 957:main.c        ****                     coordinatecounter();
 958:main.c        ****                     
 959:main.c        ****                     linedetector();
 960:main.c        ****                     
 961:main.c        ****                     if (line == 0b011111 || line == 0b111110 || line == 0b001111 || line == 0b11110
 962:main.c        ****                         {
 963:main.c        ****                             if (x < 0)
 964:main.c        ****                                 {
 965:main.c        ****                                     vTaskDelay(200);
 966:main.c        ****                                     turn_right();
 967:main.c        ****                                 
 968:main.c        ****                                     compass = 'E';  
 969:main.c        ****                                 }
 970:main.c        ****                                 
 971:main.c        ****                                 else if (x > 0)
 972:main.c        ****                                     {
 973:main.c        ****                                         vTaskDelay(200);
 974:main.c        ****                                         turn_left();
 975:main.c        ****                                     
 976:main.c        ****                                         compass = 'W';  
 977:main.c        ****                                     }
 978:main.c        ****                         } 
 979:main.c        ****             return;            
 980:main.c        ****             
 981:main.c        ****             }
 982:main.c        ****             
 983:main.c        ****         if ((line == 0b011111 || line == 0b111110 || line == 0b001111 || line == 0b111100 || line =
 984:main.c        ****             {
 985:main.c        ****                 vTaskDelay(50);
 986:main.c        ****                         
 987:main.c        ****                     sensors();
 988:main.c        ****                     
 989:main.c        ****                     coordinatecounter();
 990:main.c        ****                     
 991:main.c        ****                     linedetector();
 992:main.c        ****                     
 993:main.c        ****                     if (line == 0b011111 || line == 0b111110 || line == 0b001111 || line == 0b11110
 994:main.c        ****                         {
 995:main.c        ****                             sensors();
 996:main.c        ****                     
 997:main.c        ****                             coordinatecounter();
 998:main.c        ****                             
 999:main.c        ****                             linedetector();
1000:main.c        ****                             
1001:main.c        ****                             if (x < 0)
1002:main.c        ****                                 {
1003:main.c        ****                                     vTaskDelay(200);
1004:main.c        ****                                     turn_right();
1005:main.c        ****                                 
1006:main.c        ****                                     compass = 'E';  
1007:main.c        ****                                 }
1008:main.c        ****                                 
1009:main.c        ****                                 else if (x > 0)
ARM GAS  C:\Users\8523~1\AppData\Local\Temp\ccJE8vL2.s 			page 24


1010:main.c        ****                                     {
1011:main.c        ****                                         vTaskDelay(200);
1012:main.c        ****                                         turn_left();
1013:main.c        ****                                     
1014:main.c        ****                                         compass = 'W';  
1015:main.c        ****                                     }
1016:main.c        ****                         } 
1017:main.c        ****             return;    
1018:main.c        ****             }
1019:main.c        ****              
1020:main.c        ****         else motor_forward(75, 0);
1021:main.c        ****     }
1022:main.c        **** 
1023:main.c        **** void turn_left(void)
1024:main.c        ****     {           
1025:main.c        ****         tank_turn_left(100, 200);
1026:main.c        ****         motor_forward(0, 0);
1027:main.c        ****         
1028:main.c        ****         for (int i = 0; 1 < 1000; i++)   //auto tune
1029:main.c        ****             {
1030:main.c        ****                 sensors();
1031:main.c        ****                 
1032:main.c        ****                 tank_turn_left(100, 0);
1033:main.c        ****                 
1034:main.c        ****                 if (line == 0b001100)
1035:main.c        ****                     {
1036:main.c        ****                         break;
1037:main.c        ****                     }
1038:main.c        ****             }    
1039:main.c        ****     }
1040:main.c        ****     
1041:main.c        **** void turn_right(void)
1042:main.c        ****     {
1043:main.c        ****         tank_turn_right(100, 200);
1044:main.c        ****         motor_forward(0, 0);
1045:main.c        ****         
1046:main.c        ****         for(int i = 0; 1 < 1000; i++)   // auto tune
1047:main.c        ****             {
1048:main.c        ****                 sensors();
1049:main.c        ****                 
1050:main.c        ****                 tank_turn_right(100, 0);
1051:main.c        ****                 
1052:main.c        ****                 if (line == 0b001100)
1053:main.c        ****                     {
1054:main.c        ****                         break;
1055:main.c        ****                     }  
1056:main.c        ****             }
1057:main.c        ****     }
1058:main.c        ****  
1059:main.c        **** void tank_turn_left(uint8 speed, uint32 delay)
1060:main.c        ****     {
 303              		.loc 1 1060 0
 304              		.cfi_startproc
 305              		@ args = 0, pretend = 0, frame = 0
 306              		@ frame_needed = 0, uses_anonymous_args = 0
 307              	.LVL4:
 308 0000 38B5     		push	{r3, r4, r5, lr}
ARM GAS  C:\Users\8523~1\AppData\Local\Temp\ccJE8vL2.s 			page 25


 309              		.cfi_def_cfa_offset 16
 310              		.cfi_offset 3, -16
 311              		.cfi_offset 4, -12
 312              		.cfi_offset 5, -8
 313              		.cfi_offset 14, -4
 314 0002 0446     		mov	r4, r0
 315 0004 0D46     		mov	r5, r1
1061:main.c        ****         MotorDirLeft_Write(1);      // set LeftMotor backward mode
 316              		.loc 1 1061 0
 317 0006 0120     		movs	r0, #1
 318              	.LVL5:
 319 0008 FFF7FEFF 		bl	MotorDirLeft_Write
 320              	.LVL6:
1062:main.c        ****         MotorDirRight_Write(0);     // set RightMotor forward mode
 321              		.loc 1 1062 0
 322 000c 0020     		movs	r0, #0
 323 000e FFF7FEFF 		bl	MotorDirRight_Write
 324              	.LVL7:
1063:main.c        ****         PWM_WriteCompare1(speed);
 325              		.loc 1 1063 0
 326 0012 2046     		mov	r0, r4
 327 0014 FFF7FEFF 		bl	PWM_WriteCompare1
 328              	.LVL8:
1064:main.c        ****         PWM_WriteCompare2(speed);
 329              		.loc 1 1064 0
 330 0018 2046     		mov	r0, r4
 331 001a FFF7FEFF 		bl	PWM_WriteCompare2
 332              	.LVL9:
1065:main.c        ****         vTaskDelay(delay);
 333              		.loc 1 1065 0
 334 001e 2846     		mov	r0, r5
 335 0020 FFF7FEFF 		bl	vTaskDelay
 336              	.LVL10:
 337 0024 38BD     		pop	{r3, r4, r5, pc}
 338              		.cfi_endproc
 339              	.LFE92:
 340              		.size	tank_turn_left, .-tank_turn_left
 341 0026 00BF     		.section	.text.turn_left,"ax",%progbits
 342              		.align	2
 343              		.global	turn_left
 344              		.thumb
 345              		.thumb_func
 346              		.type	turn_left, %function
 347              	turn_left:
 348              	.LFB90:
1024:main.c        ****         tank_turn_left(100, 200);
 349              		.loc 1 1024 0
 350              		.cfi_startproc
 351              		@ args = 0, pretend = 0, frame = 0
 352              		@ frame_needed = 0, uses_anonymous_args = 0
 353 0000 08B5     		push	{r3, lr}
 354              		.cfi_def_cfa_offset 8
 355              		.cfi_offset 3, -8
 356              		.cfi_offset 14, -4
1025:main.c        ****         motor_forward(0, 0);
 357              		.loc 1 1025 0
 358 0002 C821     		movs	r1, #200
ARM GAS  C:\Users\8523~1\AppData\Local\Temp\ccJE8vL2.s 			page 26


 359 0004 6420     		movs	r0, #100
 360 0006 FFF7FEFF 		bl	tank_turn_left
 361              	.LVL11:
1026:main.c        ****         
 362              		.loc 1 1026 0
 363 000a 0021     		movs	r1, #0
 364 000c 0846     		mov	r0, r1
 365 000e FFF7FEFF 		bl	motor_forward
 366              	.LVL12:
 367              	.L25:
 368              	.LBB2:
1030:main.c        ****                 
 369              		.loc 1 1030 0
 370 0012 FFF7FEFF 		bl	sensors
 371              	.LVL13:
1032:main.c        ****                 
 372              		.loc 1 1032 0
 373 0016 0021     		movs	r1, #0
 374 0018 6420     		movs	r0, #100
 375 001a FFF7FEFF 		bl	tank_turn_left
 376              	.LVL14:
1034:main.c        ****                     {
 377              		.loc 1 1034 0
 378 001e 024B     		ldr	r3, .L27
 379 0020 1B68     		ldr	r3, [r3]
 380 0022 0C2B     		cmp	r3, #12
 381 0024 F5D1     		bne	.L25
 382              	.LBE2:
1039:main.c        ****     
 383              		.loc 1 1039 0
 384 0026 08BD     		pop	{r3, pc}
 385              	.L28:
 386              		.align	2
 387              	.L27:
 388 0028 00000000 		.word	line
 389              		.cfi_endproc
 390              	.LFE90:
 391              		.size	turn_left, .-turn_left
 392              		.section	.text.tank_turn_right,"ax",%progbits
 393              		.align	2
 394              		.global	tank_turn_right
 395              		.thumb
 396              		.thumb_func
 397              		.type	tank_turn_right, %function
 398              	tank_turn_right:
 399              	.LFB93:
1066:main.c        ****     }
1067:main.c        **** 
1068:main.c        **** void tank_turn_right(uint8 speed, uint32 delay)
1069:main.c        ****     {
 400              		.loc 1 1069 0
 401              		.cfi_startproc
 402              		@ args = 0, pretend = 0, frame = 0
 403              		@ frame_needed = 0, uses_anonymous_args = 0
 404              	.LVL15:
 405 0000 38B5     		push	{r3, r4, r5, lr}
 406              		.cfi_def_cfa_offset 16
ARM GAS  C:\Users\8523~1\AppData\Local\Temp\ccJE8vL2.s 			page 27


 407              		.cfi_offset 3, -16
 408              		.cfi_offset 4, -12
 409              		.cfi_offset 5, -8
 410              		.cfi_offset 14, -4
 411 0002 0446     		mov	r4, r0
 412 0004 0D46     		mov	r5, r1
1070:main.c        ****         MotorDirLeft_Write(0);      // set LeftMotor forward mode
 413              		.loc 1 1070 0
 414 0006 0020     		movs	r0, #0
 415              	.LVL16:
 416 0008 FFF7FEFF 		bl	MotorDirLeft_Write
 417              	.LVL17:
1071:main.c        ****         MotorDirRight_Write(1);     // set RightMotor backward mode
 418              		.loc 1 1071 0
 419 000c 0120     		movs	r0, #1
 420 000e FFF7FEFF 		bl	MotorDirRight_Write
 421              	.LVL18:
1072:main.c        ****         PWM_WriteCompare1(speed); 
 422              		.loc 1 1072 0
 423 0012 2046     		mov	r0, r4
 424 0014 FFF7FEFF 		bl	PWM_WriteCompare1
 425              	.LVL19:
1073:main.c        ****         PWM_WriteCompare2(speed);
 426              		.loc 1 1073 0
 427 0018 2046     		mov	r0, r4
 428 001a FFF7FEFF 		bl	PWM_WriteCompare2
 429              	.LVL20:
1074:main.c        ****         vTaskDelay(delay);
 430              		.loc 1 1074 0
 431 001e 2846     		mov	r0, r5
 432 0020 FFF7FEFF 		bl	vTaskDelay
 433              	.LVL21:
 434 0024 38BD     		pop	{r3, r4, r5, pc}
 435              		.cfi_endproc
 436              	.LFE93:
 437              		.size	tank_turn_right, .-tank_turn_right
 438 0026 00BF     		.section	.text.turn_right,"ax",%progbits
 439              		.align	2
 440              		.global	turn_right
 441              		.thumb
 442              		.thumb_func
 443              		.type	turn_right, %function
 444              	turn_right:
 445              	.LFB91:
1042:main.c        ****         tank_turn_right(100, 200);
 446              		.loc 1 1042 0
 447              		.cfi_startproc
 448              		@ args = 0, pretend = 0, frame = 0
 449              		@ frame_needed = 0, uses_anonymous_args = 0
 450 0000 08B5     		push	{r3, lr}
 451              		.cfi_def_cfa_offset 8
 452              		.cfi_offset 3, -8
 453              		.cfi_offset 14, -4
1043:main.c        ****         motor_forward(0, 0);
 454              		.loc 1 1043 0
 455 0002 C821     		movs	r1, #200
 456 0004 6420     		movs	r0, #100
ARM GAS  C:\Users\8523~1\AppData\Local\Temp\ccJE8vL2.s 			page 28


 457 0006 FFF7FEFF 		bl	tank_turn_right
 458              	.LVL22:
1044:main.c        ****         
 459              		.loc 1 1044 0
 460 000a 0021     		movs	r1, #0
 461 000c 0846     		mov	r0, r1
 462 000e FFF7FEFF 		bl	motor_forward
 463              	.LVL23:
 464              	.L32:
 465              	.LBB3:
1048:main.c        ****                 
 466              		.loc 1 1048 0
 467 0012 FFF7FEFF 		bl	sensors
 468              	.LVL24:
1050:main.c        ****                 
 469              		.loc 1 1050 0
 470 0016 0021     		movs	r1, #0
 471 0018 6420     		movs	r0, #100
 472 001a FFF7FEFF 		bl	tank_turn_right
 473              	.LVL25:
1052:main.c        ****                     {
 474              		.loc 1 1052 0
 475 001e 024B     		ldr	r3, .L34
 476 0020 1B68     		ldr	r3, [r3]
 477 0022 0C2B     		cmp	r3, #12
 478 0024 F5D1     		bne	.L32
 479              	.LBE3:
1057:main.c        ****  
 480              		.loc 1 1057 0
 481 0026 08BD     		pop	{r3, pc}
 482              	.L35:
 483              		.align	2
 484              	.L34:
 485 0028 00000000 		.word	line
 486              		.cfi_endproc
 487              	.LFE91:
 488              		.size	turn_right, .-turn_right
 489              		.section	.text.drive,"ax",%progbits
 490              		.align	2
 491              		.global	drive
 492              		.thumb
 493              		.thumb_func
 494              		.type	drive, %function
 495              	drive:
 496              	.LFB89:
 814:main.c        ****         
 497              		.loc 1 814 0
 498              		.cfi_startproc
 499              		@ args = 0, pretend = 0, frame = 0
 500              		@ frame_needed = 0, uses_anonymous_args = 0
 501 0000 08B5     		push	{r3, lr}
 502              		.cfi_def_cfa_offset 8
 503              		.cfi_offset 3, -8
 504              		.cfi_offset 14, -4
 816:main.c        ****             {
 505              		.loc 1 816 0
 506 0002 974B     		ldr	r3, .L61
ARM GAS  C:\Users\8523~1\AppData\Local\Temp\ccJE8vL2.s 			page 29


 507 0004 1B68     		ldr	r3, [r3]
 508 0006 0C2B     		cmp	r3, #12
 509 0008 04D1     		bne	.L37
 818:main.c        ****                 return;
 510              		.loc 1 818 0
 511 000a 0021     		movs	r1, #0
 512 000c 4B20     		movs	r0, #75
 513 000e FFF7FEFF 		bl	motor_forward
 514              	.LVL26:
 819:main.c        ****             }  
 515              		.loc 1 819 0
 516 0012 08BD     		pop	{r3, pc}
 517              	.L37:
 822:main.c        ****             {
 518              		.loc 1 822 0
 519 0014 182B     		cmp	r3, #24
 520 0016 05D1     		bne	.L39
 824:main.c        ****                 return;  
 521              		.loc 1 824 0
 522 0018 0022     		movs	r2, #0
 523 001a 6421     		movs	r1, #100
 524 001c 1046     		mov	r0, r2
 525 001e FFF7FEFF 		bl	motor_turn
 526              	.LVL27:
 825:main.c        ****             }   
 527              		.loc 1 825 0
 528 0022 08BD     		pop	{r3, pc}
 529              	.L39:
 828:main.c        ****             {
 530              		.loc 1 828 0
 531 0024 062B     		cmp	r3, #6
 532 0026 05D1     		bne	.L40
 830:main.c        ****                 return;
 533              		.loc 1 830 0
 534 0028 0022     		movs	r2, #0
 535 002a 1146     		mov	r1, r2
 536 002c 6420     		movs	r0, #100
 537 002e FFF7FEFF 		bl	motor_turn
 538              	.LVL28:
 831:main.c        ****             }   
 539              		.loc 1 831 0
 540 0032 08BD     		pop	{r3, pc}
 541              	.L40:
 834:main.c        ****             {
 542              		.loc 1 834 0
 543 0034 302B     		cmp	r3, #48
 544 0036 01D0     		beq	.L41
 834:main.c        ****             {
 545              		.loc 1 834 0 is_stmt 0 discriminator 1
 546 0038 102B     		cmp	r3, #16
 547 003a 05D1     		bne	.L42
 548              	.L41:
 836:main.c        ****                 return;
 549              		.loc 1 836 0 is_stmt 1
 550 003c 0022     		movs	r2, #0
 551 003e 9621     		movs	r1, #150
 552 0040 1046     		mov	r0, r2
ARM GAS  C:\Users\8523~1\AppData\Local\Temp\ccJE8vL2.s 			page 30


 553 0042 FFF7FEFF 		bl	motor_turn
 554              	.LVL29:
 837:main.c        ****             }   
 555              		.loc 1 837 0
 556 0046 08BD     		pop	{r3, pc}
 557              	.L42:
 840:main.c        ****             {
 558              		.loc 1 840 0
 559 0048 9A1E     		subs	r2, r3, #2
 560 004a 012A     		cmp	r2, #1
 561 004c 05D8     		bhi	.L43
 842:main.c        ****                 return;
 562              		.loc 1 842 0
 563 004e 0022     		movs	r2, #0
 564 0050 1146     		mov	r1, r2
 565 0052 9620     		movs	r0, #150
 566 0054 FFF7FEFF 		bl	motor_turn
 567              	.LVL30:
 843:main.c        ****             }
 568              		.loc 1 843 0
 569 0058 08BD     		pop	{r3, pc}
 570              	.L43:
 846:main.c        ****             {
 571              		.loc 1 846 0
 572 005a 3F2B     		cmp	r3, #63
 573 005c 38D1     		bne	.L44
 846:main.c        ****             {
 574              		.loc 1 846 0 is_stmt 0 discriminator 1
 575 005e 814A     		ldr	r2, .L61+4
 576 0060 1268     		ldr	r2, [r2]
 577 0062 012A     		cmp	r2, #1
 578 0064 34D1     		bne	.L44
 846:main.c        ****             {
 579              		.loc 1 846 0 discriminator 2
 580 0066 804A     		ldr	r2, .L61+8
 581 0068 1278     		ldrb	r2, [r2]	@ zero_extendqisi2
 582 006a 4E2A     		cmp	r2, #78
 583 006c 30D1     		bne	.L44
 848:main.c        ****                     {
 584              		.loc 1 848 0 is_stmt 1
 585 006e 7F4B     		ldr	r3, .L61+12
 586 0070 1B68     		ldr	r3, [r3]
 587 0072 002B     		cmp	r3, #0
 588 0074 14DB     		blt	.L45
 850:main.c        ****                     
 589              		.loc 1 850 0
 590 0076 FA20     		movs	r0, #250
 591 0078 FFF7FEFF 		bl	vTaskDelay
 592              	.LVL31:
 852:main.c        ****                         
 593              		.loc 1 852 0
 594 007c FFF7FEFF 		bl	turn_left
 595              	.LVL32:
 854:main.c        ****                                             
 596              		.loc 1 854 0
 597 0080 5722     		movs	r2, #87
 598 0082 794B     		ldr	r3, .L61+8
ARM GAS  C:\Users\8523~1\AppData\Local\Temp\ccJE8vL2.s 			page 31


 599 0084 1A70     		strb	r2, [r3]
 856:main.c        ****                             {
 600              		.loc 1 856 0
 601 0086 774B     		ldr	r3, .L61+4
 602 0088 1B68     		ldr	r3, [r3]
 603 008a 012B     		cmp	r3, #1
 604 008c 40F03D81 		bne	.L36
 858:main.c        ****                                 turn_right();
 605              		.loc 1 858 0
 606 0090 FFF7FEFF 		bl	turn_right
 607              	.LVL33:
 859:main.c        ****                                 compass = 'E';    
 608              		.loc 1 859 0
 609 0094 FFF7FEFF 		bl	turn_right
 610              	.LVL34:
 860:main.c        ****                             }
 611              		.loc 1 860 0
 612 0098 4522     		movs	r2, #69
 613 009a 734B     		ldr	r3, .L61+8
 614 009c 1A70     		strb	r2, [r3]
 615 009e 08BD     		pop	{r3, pc}
 616              	.L45:
 864:main.c        ****                         {
 617              		.loc 1 864 0
 618 00a0 002B     		cmp	r3, #0
 619 00a2 80F23281 		bge	.L36
 866:main.c        ****                             
 620              		.loc 1 866 0
 621 00a6 FA20     		movs	r0, #250
 622 00a8 FFF7FEFF 		bl	vTaskDelay
 623              	.LVL35:
 868:main.c        ****                                 
 624              		.loc 1 868 0
 625 00ac FFF7FEFF 		bl	turn_right
 626              	.LVL36:
 870:main.c        ****                                                     
 627              		.loc 1 870 0
 628 00b0 4522     		movs	r2, #69
 629 00b2 6D4B     		ldr	r3, .L61+8
 630 00b4 1A70     		strb	r2, [r3]
 872:main.c        ****                                     {
 631              		.loc 1 872 0
 632 00b6 6B4B     		ldr	r3, .L61+4
 633 00b8 1B68     		ldr	r3, [r3]
 634 00ba 012B     		cmp	r3, #1
 635 00bc 40F02581 		bne	.L36
 874:main.c        ****                                         turn_left();
 636              		.loc 1 874 0
 637 00c0 FFF7FEFF 		bl	turn_left
 638              	.LVL37:
 875:main.c        ****                                         compass = 'W';    
 639              		.loc 1 875 0
 640 00c4 FFF7FEFF 		bl	turn_left
 641              	.LVL38:
 876:main.c        ****                                     }      
 642              		.loc 1 876 0
 643 00c8 5722     		movs	r2, #87
ARM GAS  C:\Users\8523~1\AppData\Local\Temp\ccJE8vL2.s 			page 32


 644 00ca 674B     		ldr	r3, .L61+8
 645 00cc 1A70     		strb	r2, [r3]
 646 00ce 08BD     		pop	{r3, pc}
 647              	.L44:
 883:main.c        ****             {
 648              		.loc 1 883 0
 649 00d0 3F2B     		cmp	r3, #63
 650 00d2 1ED1     		bne	.L46
 883:main.c        ****             {
 651              		.loc 1 883 0 is_stmt 0 discriminator 1
 652 00d4 634A     		ldr	r2, .L61+4
 653 00d6 1268     		ldr	r2, [r2]
 654 00d8 DAB9     		cbnz	r2, .L46
 883:main.c        ****             {
 655              		.loc 1 883 0 discriminator 2
 656 00da 634A     		ldr	r2, .L61+8
 657 00dc 1278     		ldrb	r2, [r2]	@ zero_extendqisi2
 658 00de 572A     		cmp	r2, #87
 659 00e0 17D1     		bne	.L46
 883:main.c        ****             {
 660              		.loc 1 883 0 discriminator 3
 661 00e2 624A     		ldr	r2, .L61+12
 662 00e4 1268     		ldr	r2, [r2]
 663 00e6 12F1030F 		cmn	r2, #3
 664 00ea 12D0     		beq	.L46
 885:main.c        ****                                                         
 665              		.loc 1 885 0 is_stmt 1
 666 00ec FA20     		movs	r0, #250
 667 00ee FFF7FEFF 		bl	vTaskDelay
 668              	.LVL39:
 887:main.c        ****                     
 669              		.loc 1 887 0
 670 00f2 FFF7FEFF 		bl	turn_right
 671              	.LVL40:
 889:main.c        ****                                         
 672              		.loc 1 889 0
 673 00f6 4E22     		movs	r2, #78
 674 00f8 5B4B     		ldr	r3, .L61+8
 675 00fa 1A70     		strb	r2, [r3]
 891:main.c        ****                     {
 676              		.loc 1 891 0
 677 00fc 594B     		ldr	r3, .L61+4
 678 00fe 1B68     		ldr	r3, [r3]
 679 0100 012B     		cmp	r3, #1
 680 0102 40F00281 		bne	.L36
 893:main.c        ****                         compass = 'W';
 681              		.loc 1 893 0
 682 0106 FFF7FEFF 		bl	turn_left
 683              	.LVL41:
 894:main.c        ****                     }
 684              		.loc 1 894 0
 685 010a 5722     		movs	r2, #87
 686 010c 564B     		ldr	r3, .L61+8
 687 010e 1A70     		strb	r2, [r3]
 688 0110 08BD     		pop	{r3, pc}
 689              	.L46:
 900:main.c        ****             {
ARM GAS  C:\Users\8523~1\AppData\Local\Temp\ccJE8vL2.s 			page 33


 690              		.loc 1 900 0
 691 0112 3F2B     		cmp	r3, #63
 692 0114 1FD1     		bne	.L47
 900:main.c        ****             {
 693              		.loc 1 900 0 is_stmt 0 discriminator 1
 694 0116 534A     		ldr	r2, .L61+4
 695 0118 1268     		ldr	r2, [r2]
 696 011a 012A     		cmp	r2, #1
 697 011c 04D0     		beq	.L48
 900:main.c        ****             {
 698              		.loc 1 900 0 discriminator 3
 699 011e 534A     		ldr	r2, .L61+12
 700 0120 1268     		ldr	r2, [r2]
 701 0122 12F1030F 		cmn	r2, #3
 702 0126 16D1     		bne	.L47
 703              	.L48:
 900:main.c        ****             {
 704              		.loc 1 900 0 discriminator 4
 705 0128 4F4A     		ldr	r2, .L61+8
 706 012a 1278     		ldrb	r2, [r2]	@ zero_extendqisi2
 707 012c 572A     		cmp	r2, #87
 708 012e 12D1     		bne	.L47
 902:main.c        ****                                                         
 709              		.loc 1 902 0 is_stmt 1
 710 0130 FA20     		movs	r0, #250
 711 0132 FFF7FEFF 		bl	vTaskDelay
 712              	.LVL42:
 904:main.c        ****                                            
 713              		.loc 1 904 0
 714 0136 FFF7FEFF 		bl	turn_right
 715              	.LVL43:
 906:main.c        ****                     
 716              		.loc 1 906 0
 717 013a 4E22     		movs	r2, #78
 718 013c 4A4B     		ldr	r3, .L61+8
 719 013e 1A70     		strb	r2, [r3]
 908:main.c        ****                     {
 720              		.loc 1 908 0
 721 0140 484B     		ldr	r3, .L61+4
 722 0142 1B68     		ldr	r3, [r3]
 723 0144 012B     		cmp	r3, #1
 724 0146 40F0E080 		bne	.L36
 910:main.c        ****                         compass = 'E';
 725              		.loc 1 910 0
 726 014a FFF7FEFF 		bl	turn_right
 727              	.LVL44:
 911:main.c        ****                     }
 728              		.loc 1 911 0
 729 014e 4522     		movs	r2, #69
 730 0150 454B     		ldr	r3, .L61+8
 731 0152 1A70     		strb	r2, [r3]
 732 0154 08BD     		pop	{r3, pc}
 733              	.L47:
 917:main.c        ****             {
 734              		.loc 1 917 0
 735 0156 3F2B     		cmp	r3, #63
 736 0158 1DD1     		bne	.L49
ARM GAS  C:\Users\8523~1\AppData\Local\Temp\ccJE8vL2.s 			page 34


 917:main.c        ****             {
 737              		.loc 1 917 0 is_stmt 0 discriminator 1
 738 015a 424A     		ldr	r2, .L61+4
 739 015c 1268     		ldr	r2, [r2]
 740 015e D2B9     		cbnz	r2, .L49
 917:main.c        ****             {
 741              		.loc 1 917 0 discriminator 2
 742 0160 414A     		ldr	r2, .L61+8
 743 0162 1278     		ldrb	r2, [r2]	@ zero_extendqisi2
 744 0164 452A     		cmp	r2, #69
 745 0166 16D1     		bne	.L49
 917:main.c        ****             {
 746              		.loc 1 917 0 discriminator 3
 747 0168 404A     		ldr	r2, .L61+12
 748 016a 1268     		ldr	r2, [r2]
 749 016c 032A     		cmp	r2, #3
 750 016e 12D0     		beq	.L49
 919:main.c        ****                                                         
 751              		.loc 1 919 0 is_stmt 1
 752 0170 FA20     		movs	r0, #250
 753 0172 FFF7FEFF 		bl	vTaskDelay
 754              	.LVL45:
 921:main.c        ****                                            
 755              		.loc 1 921 0
 756 0176 FFF7FEFF 		bl	turn_left
 757              	.LVL46:
 923:main.c        ****                     
 758              		.loc 1 923 0
 759 017a 4E22     		movs	r2, #78
 760 017c 3A4B     		ldr	r3, .L61+8
 761 017e 1A70     		strb	r2, [r3]
 925:main.c        ****                     {
 762              		.loc 1 925 0
 763 0180 384B     		ldr	r3, .L61+4
 764 0182 1B68     		ldr	r3, [r3]
 765 0184 012B     		cmp	r3, #1
 766 0186 40F0C080 		bne	.L36
 927:main.c        ****                         compass = 'E';
 767              		.loc 1 927 0
 768 018a FFF7FEFF 		bl	turn_right
 769              	.LVL47:
 928:main.c        ****                     }
 770              		.loc 1 928 0
 771 018e 4522     		movs	r2, #69
 772 0190 354B     		ldr	r3, .L61+8
 773 0192 1A70     		strb	r2, [r3]
 774 0194 08BD     		pop	{r3, pc}
 775              	.L49:
 934:main.c        ****             {
 776              		.loc 1 934 0
 777 0196 3F2B     		cmp	r3, #63
 778 0198 1ED1     		bne	.L50
 934:main.c        ****             {
 779              		.loc 1 934 0 is_stmt 0 discriminator 1
 780 019a 324A     		ldr	r2, .L61+4
 781 019c 1268     		ldr	r2, [r2]
 782 019e 012A     		cmp	r2, #1
ARM GAS  C:\Users\8523~1\AppData\Local\Temp\ccJE8vL2.s 			page 35


 783 01a0 03D0     		beq	.L51
 934:main.c        ****             {
 784              		.loc 1 934 0 discriminator 3
 785 01a2 324A     		ldr	r2, .L61+12
 786 01a4 1268     		ldr	r2, [r2]
 787 01a6 032A     		cmp	r2, #3
 788 01a8 16D1     		bne	.L50
 789              	.L51:
 934:main.c        ****             {
 790              		.loc 1 934 0 discriminator 4
 791 01aa 2F4A     		ldr	r2, .L61+8
 792 01ac 1278     		ldrb	r2, [r2]	@ zero_extendqisi2
 793 01ae 452A     		cmp	r2, #69
 794 01b0 12D1     		bne	.L50
 936:main.c        ****                                                         
 795              		.loc 1 936 0 is_stmt 1
 796 01b2 FA20     		movs	r0, #250
 797 01b4 FFF7FEFF 		bl	vTaskDelay
 798              	.LVL48:
 938:main.c        ****                                            
 799              		.loc 1 938 0
 800 01b8 FFF7FEFF 		bl	turn_left
 801              	.LVL49:
 940:main.c        ****                     
 802              		.loc 1 940 0
 803 01bc 4E22     		movs	r2, #78
 804 01be 2A4B     		ldr	r3, .L61+8
 805 01c0 1A70     		strb	r2, [r3]
 942:main.c        ****                     {
 806              		.loc 1 942 0
 807 01c2 284B     		ldr	r3, .L61+4
 808 01c4 1B68     		ldr	r3, [r3]
 809 01c6 012B     		cmp	r3, #1
 810 01c8 40F09F80 		bne	.L36
 944:main.c        ****                         compass = 'W';
 811              		.loc 1 944 0
 812 01cc FFF7FEFF 		bl	turn_left
 813              	.LVL50:
 945:main.c        ****                     }
 814              		.loc 1 945 0
 815 01d0 5722     		movs	r2, #87
 816 01d2 254B     		ldr	r3, .L61+8
 817 01d4 1A70     		strb	r2, [r3]
 818 01d6 08BD     		pop	{r3, pc}
 819              	.L50:
 951:main.c        ****             {
 820              		.loc 1 951 0
 821 01d8 1F2B     		cmp	r3, #31
 822 01da 09D0     		beq	.L52
 951:main.c        ****             {
 823              		.loc 1 951 0 is_stmt 0 discriminator 2
 824 01dc 3E2B     		cmp	r3, #62
 825 01de 07D0     		beq	.L52
 951:main.c        ****             {
 826              		.loc 1 951 0 discriminator 4
 827 01e0 0F2B     		cmp	r3, #15
 828 01e2 05D0     		beq	.L52
ARM GAS  C:\Users\8523~1\AppData\Local\Temp\ccJE8vL2.s 			page 36


 951:main.c        ****             {
 829              		.loc 1 951 0 discriminator 6
 830 01e4 3C2B     		cmp	r3, #60
 831 01e6 03D0     		beq	.L52
 951:main.c        ****             {
 832              		.loc 1 951 0 discriminator 8
 833 01e8 072B     		cmp	r3, #7
 834 01ea 01D0     		beq	.L52
 951:main.c        ****             {
 835              		.loc 1 951 0 discriminator 10
 836 01ec 382B     		cmp	r3, #56
 837 01ee 3FD1     		bne	.L53
 838              	.L52:
 951:main.c        ****             {
 839              		.loc 1 951 0 discriminator 11
 840 01f0 1C4A     		ldr	r2, .L61+4
 841 01f2 1268     		ldr	r2, [r2]
 842 01f4 012A     		cmp	r2, #1
 843 01f6 3BD1     		bne	.L53
 951:main.c        ****             {
 844              		.loc 1 951 0 discriminator 12
 845 01f8 1B4A     		ldr	r2, .L61+8
 846 01fa 1278     		ldrb	r2, [r2]	@ zero_extendqisi2
 847 01fc 4E2A     		cmp	r2, #78
 848 01fe 37D1     		bne	.L53
 953:main.c        ****                         
 849              		.loc 1 953 0 is_stmt 1
 850 0200 3220     		movs	r0, #50
 851 0202 FFF7FEFF 		bl	vTaskDelay
 852              	.LVL51:
 955:main.c        ****                     
 853              		.loc 1 955 0
 854 0206 FFF7FEFF 		bl	sensors
 855              	.LVL52:
 957:main.c        ****                     
 856              		.loc 1 957 0
 857 020a FFF7FEFF 		bl	coordinatecounter
 858              	.LVL53:
 959:main.c        ****                     
 859              		.loc 1 959 0
 860 020e FFF7FEFF 		bl	linedetector
 861              	.LVL54:
 961:main.c        ****                         {
 862              		.loc 1 961 0
 863 0212 134B     		ldr	r3, .L61
 864 0214 1B68     		ldr	r3, [r3]
 865 0216 1F2B     		cmp	r3, #31
 866 0218 09D0     		beq	.L54
 961:main.c        ****                         {
 867              		.loc 1 961 0 is_stmt 0 discriminator 1
 868 021a 3E2B     		cmp	r3, #62
 869 021c 07D0     		beq	.L54
 961:main.c        ****                         {
 870              		.loc 1 961 0 discriminator 2
 871 021e 0F2B     		cmp	r3, #15
 872 0220 05D0     		beq	.L54
 961:main.c        ****                         {
ARM GAS  C:\Users\8523~1\AppData\Local\Temp\ccJE8vL2.s 			page 37


 873              		.loc 1 961 0 discriminator 3
 874 0222 3C2B     		cmp	r3, #60
 875 0224 03D0     		beq	.L54
 961:main.c        ****                         {
 876              		.loc 1 961 0 discriminator 4
 877 0226 072B     		cmp	r3, #7
 878 0228 01D0     		beq	.L54
 961:main.c        ****                         {
 879              		.loc 1 961 0 discriminator 5
 880 022a 382B     		cmp	r3, #56
 881 022c 6DD1     		bne	.L36
 882              	.L54:
 963:main.c        ****                                 {
 883              		.loc 1 963 0 is_stmt 1
 884 022e 0F4B     		ldr	r3, .L61+12
 885 0230 1B68     		ldr	r3, [r3]
 886 0232 002B     		cmp	r3, #0
 887 0234 08DA     		bge	.L55
 965:main.c        ****                                     turn_right();
 888              		.loc 1 965 0
 889 0236 C820     		movs	r0, #200
 890 0238 FFF7FEFF 		bl	vTaskDelay
 891              	.LVL55:
 966:main.c        ****                                 
 892              		.loc 1 966 0
 893 023c FFF7FEFF 		bl	turn_right
 894              	.LVL56:
 968:main.c        ****                                 }
 895              		.loc 1 968 0
 896 0240 4522     		movs	r2, #69
 897 0242 094B     		ldr	r3, .L61+8
 898 0244 1A70     		strb	r2, [r3]
 899 0246 08BD     		pop	{r3, pc}
 900              	.L55:
 971:main.c        ****                                     {
 901              		.loc 1 971 0
 902 0248 002B     		cmp	r3, #0
 903 024a 5EDD     		ble	.L36
 973:main.c        ****                                         turn_left();
 904              		.loc 1 973 0
 905 024c C820     		movs	r0, #200
 906 024e FFF7FEFF 		bl	vTaskDelay
 907              	.LVL57:
 974:main.c        ****                                     
 908              		.loc 1 974 0
 909 0252 FFF7FEFF 		bl	turn_left
 910              	.LVL58:
 976:main.c        ****                                     }
 911              		.loc 1 976 0
 912 0256 5722     		movs	r2, #87
 913 0258 034B     		ldr	r3, .L61+8
 914 025a 1A70     		strb	r2, [r3]
 915 025c 08BD     		pop	{r3, pc}
 916              	.L62:
 917 025e 00BF     		.align	2
 918              	.L61:
 919 0260 00000000 		.word	line
ARM GAS  C:\Users\8523~1\AppData\Local\Temp\ccJE8vL2.s 			page 38


 920 0264 00000000 		.word	obstacle
 921 0268 00000000 		.word	compass
 922 026c 00000000 		.word	x
 923              	.L53:
 983:main.c        ****             {
 924              		.loc 1 983 0
 925 0270 1F2B     		cmp	r3, #31
 926 0272 09D0     		beq	.L56
 983:main.c        ****             {
 927              		.loc 1 983 0 is_stmt 0 discriminator 2
 928 0274 3E2B     		cmp	r3, #62
 929 0276 07D0     		beq	.L56
 983:main.c        ****             {
 930              		.loc 1 983 0 discriminator 4
 931 0278 0F2B     		cmp	r3, #15
 932 027a 05D0     		beq	.L56
 983:main.c        ****             {
 933              		.loc 1 983 0 discriminator 6
 934 027c 3C2B     		cmp	r3, #60
 935 027e 03D0     		beq	.L56
 983:main.c        ****             {
 936              		.loc 1 983 0 discriminator 8
 937 0280 072B     		cmp	r3, #7
 938 0282 01D0     		beq	.L56
 983:main.c        ****             {
 939              		.loc 1 983 0 discriminator 10
 940 0284 382B     		cmp	r3, #56
 941 0286 3CD1     		bne	.L57
 942              	.L56:
 983:main.c        ****             {
 943              		.loc 1 983 0 discriminator 11
 944 0288 204B     		ldr	r3, .L63
 945 028a 1B68     		ldr	r3, [r3]
 946 028c 0A2B     		cmp	r3, #10
 947 028e 38DD     		ble	.L57
 983:main.c        ****             {
 948              		.loc 1 983 0 discriminator 12
 949 0290 1F4B     		ldr	r3, .L63+4
 950 0292 1B78     		ldrb	r3, [r3]	@ zero_extendqisi2
 951 0294 4E2B     		cmp	r3, #78
 952 0296 34D1     		bne	.L57
 985:main.c        ****                         
 953              		.loc 1 985 0 is_stmt 1
 954 0298 3220     		movs	r0, #50
 955 029a FFF7FEFF 		bl	vTaskDelay
 956              	.LVL59:
 987:main.c        ****                     
 957              		.loc 1 987 0
 958 029e FFF7FEFF 		bl	sensors
 959              	.LVL60:
 989:main.c        ****                     
 960              		.loc 1 989 0
 961 02a2 FFF7FEFF 		bl	coordinatecounter
 962              	.LVL61:
 991:main.c        ****                     
 963              		.loc 1 991 0
 964 02a6 FFF7FEFF 		bl	linedetector
ARM GAS  C:\Users\8523~1\AppData\Local\Temp\ccJE8vL2.s 			page 39


 965              	.LVL62:
 993:main.c        ****                         {
 966              		.loc 1 993 0
 967 02aa 1A4B     		ldr	r3, .L63+8
 968 02ac 1B68     		ldr	r3, [r3]
 969 02ae 1F2B     		cmp	r3, #31
 970 02b0 09D0     		beq	.L58
 993:main.c        ****                         {
 971              		.loc 1 993 0 is_stmt 0 discriminator 1
 972 02b2 3E2B     		cmp	r3, #62
 973 02b4 07D0     		beq	.L58
 993:main.c        ****                         {
 974              		.loc 1 993 0 discriminator 2
 975 02b6 0F2B     		cmp	r3, #15
 976 02b8 05D0     		beq	.L58
 993:main.c        ****                         {
 977              		.loc 1 993 0 discriminator 3
 978 02ba 3C2B     		cmp	r3, #60
 979 02bc 03D0     		beq	.L58
 993:main.c        ****                         {
 980              		.loc 1 993 0 discriminator 4
 981 02be 072B     		cmp	r3, #7
 982 02c0 01D0     		beq	.L58
 993:main.c        ****                         {
 983              		.loc 1 993 0 discriminator 5
 984 02c2 382B     		cmp	r3, #56
 985 02c4 21D1     		bne	.L36
 986              	.L58:
 995:main.c        ****                     
 987              		.loc 1 995 0 is_stmt 1
 988 02c6 FFF7FEFF 		bl	sensors
 989              	.LVL63:
 997:main.c        ****                             
 990              		.loc 1 997 0
 991 02ca FFF7FEFF 		bl	coordinatecounter
 992              	.LVL64:
 999:main.c        ****                             
 993              		.loc 1 999 0
 994 02ce FFF7FEFF 		bl	linedetector
 995              	.LVL65:
1001:main.c        ****                                 {
 996              		.loc 1 1001 0
 997 02d2 114B     		ldr	r3, .L63+12
 998 02d4 1B68     		ldr	r3, [r3]
 999 02d6 002B     		cmp	r3, #0
 1000 02d8 08DA     		bge	.L59
1003:main.c        ****                                     turn_right();
 1001              		.loc 1 1003 0
 1002 02da C820     		movs	r0, #200
 1003 02dc FFF7FEFF 		bl	vTaskDelay
 1004              	.LVL66:
1004:main.c        ****                                 
 1005              		.loc 1 1004 0
 1006 02e0 FFF7FEFF 		bl	turn_right
 1007              	.LVL67:
1006:main.c        ****                                 }
 1008              		.loc 1 1006 0
ARM GAS  C:\Users\8523~1\AppData\Local\Temp\ccJE8vL2.s 			page 40


 1009 02e4 4522     		movs	r2, #69
 1010 02e6 0A4B     		ldr	r3, .L63+4
 1011 02e8 1A70     		strb	r2, [r3]
 1012 02ea 08BD     		pop	{r3, pc}
 1013              	.L59:
1009:main.c        ****                                     {
 1014              		.loc 1 1009 0
 1015 02ec 002B     		cmp	r3, #0
 1016 02ee 0CDD     		ble	.L36
1011:main.c        ****                                         turn_left();
 1017              		.loc 1 1011 0
 1018 02f0 C820     		movs	r0, #200
 1019 02f2 FFF7FEFF 		bl	vTaskDelay
 1020              	.LVL68:
1012:main.c        ****                                     
 1021              		.loc 1 1012 0
 1022 02f6 FFF7FEFF 		bl	turn_left
 1023              	.LVL69:
1014:main.c        ****                                     }
 1024              		.loc 1 1014 0
 1025 02fa 5722     		movs	r2, #87
 1026 02fc 044B     		ldr	r3, .L63+4
 1027 02fe 1A70     		strb	r2, [r3]
 1028 0300 08BD     		pop	{r3, pc}
 1029              	.L57:
1020:main.c        ****     }
 1030              		.loc 1 1020 0
 1031 0302 0021     		movs	r1, #0
 1032 0304 4B20     		movs	r0, #75
 1033 0306 FFF7FEFF 		bl	motor_forward
 1034              	.LVL70:
 1035              	.L36:
 1036 030a 08BD     		pop	{r3, pc}
 1037              	.L64:
 1038              		.align	2
 1039              	.L63:
 1040 030c 00000000 		.word	.LANCHOR0
 1041 0310 00000000 		.word	compass
 1042 0314 00000000 		.word	line
 1043 0318 00000000 		.word	x
 1044              		.cfi_endproc
 1045              	.LFE89:
 1046              		.size	drive, .-drive
 1047              		.section	.text.zmain,"ax",%progbits
 1048              		.align	2
 1049              		.global	zmain
 1050              		.thumb
 1051              		.thumb_func
 1052              		.type	zmain, %function
 1053              	zmain:
 1054              	.LFB85:
 676:main.c        ****     
 1055              		.loc 1 676 0
 1056              		.cfi_startproc
 1057              		@ args = 0, pretend = 0, frame = 0
 1058              		@ frame_needed = 0, uses_anonymous_args = 0
 1059 0000 38B5     		push	{r3, r4, r5, lr}
ARM GAS  C:\Users\8523~1\AppData\Local\Temp\ccJE8vL2.s 			page 41


 1060              		.cfi_def_cfa_offset 16
 1061              		.cfi_offset 3, -16
 1062              		.cfi_offset 4, -12
 1063              		.cfi_offset 5, -8
 1064              		.cfi_offset 14, -4
 678:main.c        ****     IR_flush();
 1065              		.loc 1 678 0
 1066 0002 FFF7FEFF 		bl	IR_Start
 1067              	.LVL71:
 679:main.c        ****     Ultra_Start();
 1068              		.loc 1 679 0
 1069 0006 FFF7FEFF 		bl	IR_flush
 1070              	.LVL72:
 680:main.c        ****     reflectance_start();
 1071              		.loc 1 680 0
 1072 000a FFF7FEFF 		bl	Ultra_Start
 1073              	.LVL73:
 681:main.c        ****     motor_start();
 1074              		.loc 1 681 0
 1075 000e FFF7FEFF 		bl	reflectance_start
 1076              	.LVL74:
 682:main.c        ****     
 1077              		.loc 1 682 0
 1078 0012 FFF7FEFF 		bl	motor_start
 1079              	.LVL75:
 1080              	.L66:
 684:main.c        ****     
 1081              		.loc 1 684 0 discriminator 1
 1082 0016 FFF7FEFF 		bl	SW1_Read
 1083              	.LVL76:
 1084 001a 0128     		cmp	r0, #1
 1085 001c FBD0     		beq	.L66
 686:main.c        ****     
 1086              		.loc 1 686 0
 1087 001e 4E22     		movs	r2, #78
 1088 0020 294B     		ldr	r3, .L70
 1089 0022 1A70     		strb	r2, [r3]
 1090              	.L67:
 690:main.c        ****             drive();
 1091              		.loc 1 690 0
 1092 0024 FFF7FEFF 		bl	sensors
 1093              	.LVL77:
 691:main.c        ****             
 1094              		.loc 1 691 0
 1095 0028 FFF7FEFF 		bl	drive
 1096              	.LVL78:
 693:main.c        ****                 {
 1097              		.loc 1 693 0
 1098 002c 274B     		ldr	r3, .L70+4
 1099 002e 1B68     		ldr	r3, [r3]
 1100 0030 3F2B     		cmp	r3, #63
 1101 0032 F7D1     		bne	.L67
 695:main.c        ****                     Beep(100, 100);
 1102              		.loc 1 695 0
 1103 0034 0021     		movs	r1, #0
 1104 0036 0846     		mov	r0, r1
 1105 0038 FFF7FEFF 		bl	motor_forward
ARM GAS  C:\Users\8523~1\AppData\Local\Temp\ccJE8vL2.s 			page 42


 1106              	.LVL79:
 696:main.c        ****                     print_mqtt("Zumo021/ready ", "maze");
 1107              		.loc 1 696 0
 1108 003c 6421     		movs	r1, #100
 1109 003e 0846     		mov	r0, r1
 1110 0040 FFF7FEFF 		bl	Beep
 1111              	.LVL80:
 697:main.c        ****                     break;
 1112              		.loc 1 697 0
 1113 0044 2249     		ldr	r1, .L70+8
 1114 0046 2348     		ldr	r0, .L70+12
 1115 0048 FFF7FEFF 		bl	print_mqtt
 1116              	.LVL81:
 704:main.c        ****             //reveille();
 1117              		.loc 1 704 0
 1118 004c FFF7FEFF 		bl	IR_wait
 1119              	.LVL82:
 707:main.c        ****             print_mqtt("Zumo021/start ", "%d", starttime);
 1120              		.loc 1 707 0
 1121 0050 FFF7FEFF 		bl	xTaskGetTickCount
 1122              	.LVL83:
 1123 0054 0246     		mov	r2, r0
 1124 0056 204B     		ldr	r3, .L70+16
 1125 0058 1860     		str	r0, [r3]
 708:main.c        ****             
 1126              		.loc 1 708 0
 1127 005a 2049     		ldr	r1, .L70+20
 1128 005c 2048     		ldr	r0, .L70+24
 1129 005e FFF7FEFF 		bl	print_mqtt
 1130              	.LVL84:
 1131              	.L68:
 715:main.c        ****         
 1132              		.loc 1 715 0
 1133 0062 FFF7FEFF 		bl	sensors
 1134              	.LVL85:
 717:main.c        ****         
 1135              		.loc 1 717 0
 1136 0066 FFF7FEFF 		bl	linedetector
 1137              	.LVL86:
 719:main.c        ****         
 1138              		.loc 1 719 0
 1139 006a FFF7FEFF 		bl	coordinatecounter
 1140              	.LVL87:
 721:main.c        ****         
 1141              		.loc 1 721 0
 1142 006e FFF7FEFF 		bl	drive
 1143              	.LVL88:
 723:main.c        ****             {
 1144              		.loc 1 723 0
 1145 0072 164B     		ldr	r3, .L70+4
 1146 0074 1B68     		ldr	r3, [r3]
 1147 0076 002B     		cmp	r3, #0
 1148 0078 F3D1     		bne	.L68
 723:main.c        ****             {
 1149              		.loc 1 723 0 is_stmt 0 discriminator 1
 1150 007a 1A4B     		ldr	r3, .L70+28
 1151 007c 1B68     		ldr	r3, [r3]
ARM GAS  C:\Users\8523~1\AppData\Local\Temp\ccJE8vL2.s 			page 43


 1152 007e 0D2B     		cmp	r3, #13
 1153 0080 EFD1     		bne	.L68
 723:main.c        ****             {
 1154              		.loc 1 723 0 discriminator 2
 1155 0082 194B     		ldr	r3, .L70+32
 1156 0084 1B68     		ldr	r3, [r3]
 1157 0086 002B     		cmp	r3, #0
 1158 0088 EBD1     		bne	.L68
 725:main.c        ****                 
 1159              		.loc 1 725 0 is_stmt 1
 1160 008a FFF7FEFF 		bl	motor_stop
 1161              	.LVL89:
 727:main.c        ****                 
 1162              		.loc 1 727 0
 1163 008e 154B     		ldr	r3, .L70+28
 1164 0090 1B68     		ldr	r3, [r3]
 1165 0092 154A     		ldr	r2, .L70+32
 1166 0094 1268     		ldr	r2, [r2]
 1167 0096 1549     		ldr	r1, .L70+36
 1168 0098 1548     		ldr	r0, .L70+40
 1169 009a FFF7FEFF 		bl	print_mqtt
 1170              	.LVL90:
 729:main.c        ****                     
 1171              		.loc 1 729 0
 1172 009e FFF7FEFF 		bl	xTaskGetTickCount
 1173              	.LVL91:
 1174 00a2 0246     		mov	r2, r0
 1175 00a4 134D     		ldr	r5, .L70+44
 1176 00a6 2860     		str	r0, [r5]
 731:main.c        ****                 
 1177              		.loc 1 731 0
 1178 00a8 0C4C     		ldr	r4, .L70+20
 1179 00aa 2146     		mov	r1, r4
 1180 00ac 1248     		ldr	r0, .L70+48
 1181 00ae FFF7FEFF 		bl	print_mqtt
 1182              	.LVL92:
 733:main.c        ****                 
 1183              		.loc 1 733 0
 1184 00b2 2B68     		ldr	r3, [r5]
 1185 00b4 084A     		ldr	r2, .L70+16
 1186 00b6 1268     		ldr	r2, [r2]
 1187 00b8 9A1A     		subs	r2, r3, r2
 1188 00ba 104B     		ldr	r3, .L70+52
 1189 00bc 1A60     		str	r2, [r3]
 735:main.c        ****                 
 1190              		.loc 1 735 0
 1191 00be 2146     		mov	r1, r4
 1192 00c0 0F48     		ldr	r0, .L70+56
 1193 00c2 FFF7FEFF 		bl	print_mqtt
 1194              	.LVL93:
 1195 00c6 38BD     		pop	{r3, r4, r5, pc}
 1196              	.L71:
 1197              		.align	2
 1198              	.L70:
 1199 00c8 00000000 		.word	compass
 1200 00cc 00000000 		.word	line
 1201 00d0 1C000000 		.word	.LC2
ARM GAS  C:\Users\8523~1\AppData\Local\Temp\ccJE8vL2.s 			page 44


 1202 00d4 24000000 		.word	.LC3
 1203 00d8 00000000 		.word	starttime
 1204 00dc 34000000 		.word	.LC4
 1205 00e0 38000000 		.word	.LC5
 1206 00e4 00000000 		.word	.LANCHOR0
 1207 00e8 00000000 		.word	x
 1208 00ec 00000000 		.word	.LC0
 1209 00f0 08000000 		.word	.LC1
 1210 00f4 00000000 		.word	finishtime
 1211 00f8 48000000 		.word	.LC6
 1212 00fc 00000000 		.word	timepass
 1213 0100 58000000 		.word	.LC7
 1214              		.cfi_endproc
 1215              	.LFE85:
 1216              		.size	zmain, .-zmain
 1217              		.section	.text.reveille,"ax",%progbits
 1218              		.align	2
 1219              		.global	reveille
 1220              		.thumb
 1221              		.thumb_func
 1222              		.type	reveille, %function
 1223              	reveille:
 1224              	.LFB94:
1075:main.c        ****     }
1076:main.c        ****     
1077:main.c        **** void reveille(void)
1078:main.c        ****     {
 1225              		.loc 1 1078 0
 1226              		.cfi_startproc
 1227              		@ args = 0, pretend = 0, frame = 0
 1228              		@ frame_needed = 0, uses_anonymous_args = 0
 1229 0000 08B5     		push	{r3, lr}
 1230              		.cfi_def_cfa_offset 8
 1231              		.cfi_offset 3, -8
 1232              		.cfi_offset 14, -4
1079:main.c        ****         Beep(200, G1);
 1233              		.loc 1 1079 0
 1234 0002 FF21     		movs	r1, #255
 1235 0004 C820     		movs	r0, #200
 1236 0006 FFF7FEFF 		bl	Beep
 1237              	.LVL94:
1080:main.c        ****         Beep(200, C1);
 1238              		.loc 1 1080 0
 1239 000a BF21     		movs	r1, #191
 1240 000c C820     		movs	r0, #200
 1241 000e FFF7FEFF 		bl	Beep
 1242              	.LVL95:
1081:main.c        ****         Beep(100, E1);
 1243              		.loc 1 1081 0
 1244 0012 9821     		movs	r1, #152
 1245 0014 6420     		movs	r0, #100
 1246 0016 FFF7FEFF 		bl	Beep
 1247              	.LVL96:
1082:main.c        ****         Beep(100, C1);
 1248              		.loc 1 1082 0
 1249 001a BF21     		movs	r1, #191
 1250 001c 6420     		movs	r0, #100
ARM GAS  C:\Users\8523~1\AppData\Local\Temp\ccJE8vL2.s 			page 45


 1251 001e FFF7FEFF 		bl	Beep
 1252              	.LVL97:
1083:main.c        ****         Beep(200, G1);
 1253              		.loc 1 1083 0
 1254 0022 FF21     		movs	r1, #255
 1255 0024 C820     		movs	r0, #200
 1256 0026 FFF7FEFF 		bl	Beep
 1257              	.LVL98:
1084:main.c        ****         
1085:main.c        ****         Beep(200, E1);
 1258              		.loc 1 1085 0
 1259 002a 9821     		movs	r1, #152
 1260 002c C820     		movs	r0, #200
 1261 002e FFF7FEFF 		bl	Beep
 1262              	.LVL99:
1086:main.c        ****         Beep(200, C1);
 1263              		.loc 1 1086 0
 1264 0032 BF21     		movs	r1, #191
 1265 0034 C820     		movs	r0, #200
 1266 0036 FFF7FEFF 		bl	Beep
 1267              	.LVL100:
1087:main.c        ****         Beep(100, E1);
 1268              		.loc 1 1087 0
 1269 003a 9821     		movs	r1, #152
 1270 003c 6420     		movs	r0, #100
 1271 003e FFF7FEFF 		bl	Beep
 1272              	.LVL101:
1088:main.c        ****         Beep(100, C1);
 1273              		.loc 1 1088 0
 1274 0042 BF21     		movs	r1, #191
 1275 0044 6420     		movs	r0, #100
 1276 0046 FFF7FEFF 		bl	Beep
 1277              	.LVL102:
1089:main.c        ****         Beep(200, G1);
 1278              		.loc 1 1089 0
 1279 004a FF21     		movs	r1, #255
 1280 004c C820     		movs	r0, #200
 1281 004e FFF7FEFF 		bl	Beep
 1282              	.LVL103:
1090:main.c        ****         
1091:main.c        ****         Beep(200, E1);
 1283              		.loc 1 1091 0
 1284 0052 9821     		movs	r1, #152
 1285 0054 C820     		movs	r0, #200
 1286 0056 FFF7FEFF 		bl	Beep
 1287              	.LVL104:
1092:main.c        ****         Beep(200, C1);
 1288              		.loc 1 1092 0
 1289 005a BF21     		movs	r1, #191
 1290 005c C820     		movs	r0, #200
 1291 005e FFF7FEFF 		bl	Beep
 1292              	.LVL105:
1093:main.c        ****         Beep(100, E1);
 1293              		.loc 1 1093 0
 1294 0062 9821     		movs	r1, #152
 1295 0064 6420     		movs	r0, #100
 1296 0066 FFF7FEFF 		bl	Beep
ARM GAS  C:\Users\8523~1\AppData\Local\Temp\ccJE8vL2.s 			page 46


 1297              	.LVL106:
1094:main.c        ****         Beep(100, C1);
 1298              		.loc 1 1094 0
 1299 006a BF21     		movs	r1, #191
 1300 006c 6420     		movs	r0, #100
 1301 006e FFF7FEFF 		bl	Beep
 1302              	.LVL107:
1095:main.c        ****         Beep(200, G1);
 1303              		.loc 1 1095 0
 1304 0072 FF21     		movs	r1, #255
 1305 0074 C820     		movs	r0, #200
 1306 0076 FFF7FEFF 		bl	Beep
 1307              	.LVL108:
1096:main.c        ****         
1097:main.c        ****         Beep(200, C1);
 1308              		.loc 1 1097 0
 1309 007a BF21     		movs	r1, #191
 1310 007c C820     		movs	r0, #200
 1311 007e FFF7FEFF 		bl	Beep
 1312              	.LVL109:
1098:main.c        ****         Beep(400, E1);
 1313              		.loc 1 1098 0
 1314 0082 9821     		movs	r1, #152
 1315 0084 4FF4C870 		mov	r0, #400
 1316 0088 FFF7FEFF 		bl	Beep
 1317              	.LVL110:
1099:main.c        ****         Beep(200, C1);
 1318              		.loc 1 1099 0
 1319 008c BF21     		movs	r1, #191
 1320 008e C820     		movs	r0, #200
 1321 0090 FFF7FEFF 		bl	Beep
 1322              	.LVL111:
 1323 0094 08BD     		pop	{r3, pc}
 1324              		.cfi_endproc
 1325              	.LFE94:
 1326              		.size	reveille, .-reveille
 1327 0096 00BF     		.section	.text.champions,"ax",%progbits
 1328              		.align	2
 1329              		.global	champions
 1330              		.thumb
 1331              		.thumb_func
 1332              		.type	champions, %function
 1333              	champions:
 1334              	.LFB95:
1100:main.c        ****     }
1101:main.c        ****     
1102:main.c        **** void champions(void)
1103:main.c        ****     {
 1335              		.loc 1 1103 0
 1336              		.cfi_startproc
 1337              		@ args = 0, pretend = 0, frame = 0
 1338              		@ frame_needed = 0, uses_anonymous_args = 0
 1339 0000 08B5     		push	{r3, lr}
 1340              		.cfi_def_cfa_offset 8
 1341              		.cfi_offset 3, -8
 1342              		.cfi_offset 14, -4
1104:main.c        ****         Beep(250, F2);
ARM GAS  C:\Users\8523~1\AppData\Local\Temp\ccJE8vL2.s 			page 47


 1343              		.loc 1 1104 0
 1344 0002 4821     		movs	r1, #72
 1345 0004 FA20     		movs	r0, #250
 1346 0006 FFF7FEFF 		bl	Beep
 1347              	.LVL112:
1105:main.c        ****         Beep(250, F1);
 1348              		.loc 1 1105 0
 1349 000a 8F21     		movs	r1, #143
 1350 000c FA20     		movs	r0, #250
 1351 000e FFF7FEFF 		bl	Beep
 1352              	.LVL113:
1106:main.c        ****         Beep(250, A1);
 1353              		.loc 1 1106 0
 1354 0012 E321     		movs	r1, #227
 1355 0014 FA20     		movs	r0, #250
 1356 0016 FFF7FEFF 		bl	Beep
 1357              	.LVL114:
1107:main.c        ****         Beep(250, C1);
 1358              		.loc 1 1107 0
 1359 001a BF21     		movs	r1, #191
 1360 001c FA20     		movs	r0, #250
 1361 001e FFF7FEFF 		bl	Beep
 1362              	.LVL115:
1108:main.c        ****                         Beep(250, E2);
 1363              		.loc 1 1108 0
 1364 0022 4C21     		movs	r1, #76
 1365 0024 FA20     		movs	r0, #250
 1366 0026 FFF7FEFF 		bl	Beep
 1367              	.LVL116:
1109:main.c        ****                         Beep(250, F2);
 1368              		.loc 1 1109 0
 1369 002a 4821     		movs	r1, #72
 1370 002c FA20     		movs	r0, #250
 1371 002e FFF7FEFF 		bl	Beep
 1372              	.LVL117:
1110:main.c        ****                         Beep(250, E2);
 1373              		.loc 1 1110 0
 1374 0032 4C21     		movs	r1, #76
 1375 0034 FA20     		movs	r0, #250
 1376 0036 FFF7FEFF 		bl	Beep
 1377              	.LVL118:
1111:main.c        ****         Beep(250, A1);
 1378              		.loc 1 1111 0
 1379 003a E321     		movs	r1, #227
 1380 003c FA20     		movs	r0, #250
 1381 003e FFF7FEFF 		bl	Beep
 1382              	.LVL119:
1112:main.c        ****                         Beep(250, C2);
 1383              		.loc 1 1112 0
 1384 0042 6021     		movs	r1, #96
 1385 0044 FA20     		movs	r0, #250
 1386 0046 FFF7FEFF 		bl	Beep
 1387              	.LVL120:
1113:main.c        ****         Beep(250, A1);
 1388              		.loc 1 1113 0
 1389 004a E321     		movs	r1, #227
 1390 004c FA20     		movs	r0, #250
ARM GAS  C:\Users\8523~1\AppData\Local\Temp\ccJE8vL2.s 			page 48


 1391 004e FFF7FEFF 		bl	Beep
 1392              	.LVL121:
1114:main.c        ****         Beep(250, E1);
 1393              		.loc 1 1114 0
 1394 0052 9821     		movs	r1, #152
 1395 0054 FA20     		movs	r0, #250
 1396 0056 FFF7FEFF 		bl	Beep
 1397              	.LVL122:
1115:main.c        ****                         Beep(250, A2);
 1398              		.loc 1 1115 0
 1399 005a 7221     		movs	r1, #114
 1400 005c FA20     		movs	r0, #250
 1401 005e FFF7FEFF 		bl	Beep
 1402              	.LVL123:
1116:main.c        ****                         Beep(250, D2);
 1403              		.loc 1 1116 0
 1404 0062 5521     		movs	r1, #85
 1405 0064 FA20     		movs	r0, #250
 1406 0066 FFF7FEFF 		bl	Beep
 1407              	.LVL124:
1117:main.c        ****         Beep(150, D1); 
 1408              		.loc 1 1117 0
 1409 006a AA21     		movs	r1, #170
 1410 006c 9620     		movs	r0, #150
 1411 006e FFF7FEFF 		bl	Beep
 1412              	.LVL125:
1118:main.c        ****                         Beep(100, C2);
 1413              		.loc 1 1118 0
 1414 0072 6021     		movs	r1, #96
 1415 0074 6420     		movs	r0, #100
 1416 0076 FFF7FEFF 		bl	Beep
 1417              	.LVL126:
1119:main.c        ****                         Beep(250, A2);
 1418              		.loc 1 1119 0
 1419 007a 7221     		movs	r1, #114
 1420 007c FA20     		movs	r0, #250
 1421 007e FFF7FEFF 		bl	Beep
 1422              	.LVL127:
1120:main.c        ****         Beep(250, D1); 
 1423              		.loc 1 1120 0
 1424 0082 AA21     		movs	r1, #170
 1425 0084 FA20     		movs	r0, #250
 1426 0086 FFF7FEFF 		bl	Beep
 1427              	.LVL128:
1121:main.c        ****         Beep(250, A1);
 1428              		.loc 1 1121 0
 1429 008a E321     		movs	r1, #227
 1430 008c FA20     		movs	r0, #250
 1431 008e FFF7FEFF 		bl	Beep
 1432              	.LVL129:
1122:main.c        ****         Beep(250, F1);
 1433              		.loc 1 1122 0
 1434 0092 8F21     		movs	r1, #143
 1435 0094 FA20     		movs	r0, #250
 1436 0096 FFF7FEFF 		bl	Beep
 1437              	.LVL130:
1123:main.c        ****         
ARM GAS  C:\Users\8523~1\AppData\Local\Temp\ccJE8vL2.s 			page 49


1124:main.c        ****         Beep(10, F1);
 1438              		.loc 1 1124 0
 1439 009a 8F21     		movs	r1, #143
 1440 009c 0A20     		movs	r0, #10
 1441 009e FFF7FEFF 		bl	Beep
 1442              	.LVL131:
1125:main.c        ****         Beep(10, As2);
 1443              		.loc 1 1125 0
 1444 00a2 6B21     		movs	r1, #107
 1445 00a4 0A20     		movs	r0, #10
 1446 00a6 FFF7FEFF 		bl	Beep
 1447              	.LVL132:
1126:main.c        ****         Beep(10, D2);
 1448              		.loc 1 1126 0
 1449 00aa 5521     		movs	r1, #85
 1450 00ac 0A20     		movs	r0, #10
 1451 00ae FFF7FEFF 		bl	Beep
 1452              	.LVL133:
1127:main.c        ****         Beep(10, F2);
 1453              		.loc 1 1127 0
 1454 00b2 4821     		movs	r1, #72
 1455 00b4 0A20     		movs	r0, #10
 1456 00b6 FFF7FEFF 		bl	Beep
 1457              	.LVL134:
1128:main.c        ****         Beep(10, F1);
 1458              		.loc 1 1128 0
 1459 00ba 8F21     		movs	r1, #143
 1460 00bc 0A20     		movs	r0, #10
 1461 00be FFF7FEFF 		bl	Beep
 1462              	.LVL135:
1129:main.c        ****         Beep(10, As2);
 1463              		.loc 1 1129 0
 1464 00c2 6B21     		movs	r1, #107
 1465 00c4 0A20     		movs	r0, #10
 1466 00c6 FFF7FEFF 		bl	Beep
 1467              	.LVL136:
1130:main.c        ****         Beep(10, D2);
 1468              		.loc 1 1130 0
 1469 00ca 5521     		movs	r1, #85
 1470 00cc 0A20     		movs	r0, #10
 1471 00ce FFF7FEFF 		bl	Beep
 1472              	.LVL137:
1131:main.c        ****         Beep(10, F2);
 1473              		.loc 1 1131 0
 1474 00d2 4821     		movs	r1, #72
 1475 00d4 0A20     		movs	r0, #10
 1476 00d6 FFF7FEFF 		bl	Beep
 1477              	.LVL138:
1132:main.c        ****         Beep(10, F1);
 1478              		.loc 1 1132 0
 1479 00da 8F21     		movs	r1, #143
 1480 00dc 0A20     		movs	r0, #10
 1481 00de FFF7FEFF 		bl	Beep
 1482              	.LVL139:
1133:main.c        ****         Beep(10, As2);
 1483              		.loc 1 1133 0
 1484 00e2 6B21     		movs	r1, #107
ARM GAS  C:\Users\8523~1\AppData\Local\Temp\ccJE8vL2.s 			page 50


 1485 00e4 0A20     		movs	r0, #10
 1486 00e6 FFF7FEFF 		bl	Beep
 1487              	.LVL140:
1134:main.c        ****         Beep(10, D2);
 1488              		.loc 1 1134 0
 1489 00ea 5521     		movs	r1, #85
 1490 00ec 0A20     		movs	r0, #10
 1491 00ee FFF7FEFF 		bl	Beep
 1492              	.LVL141:
1135:main.c        ****         Beep(10, F2);
 1493              		.loc 1 1135 0
 1494 00f2 4821     		movs	r1, #72
 1495 00f4 0A20     		movs	r0, #10
 1496 00f6 FFF7FEFF 		bl	Beep
 1497              	.LVL142:
1136:main.c        ****         Beep(10, F1);
 1498              		.loc 1 1136 0
 1499 00fa 8F21     		movs	r1, #143
 1500 00fc 0A20     		movs	r0, #10
 1501 00fe FFF7FEFF 		bl	Beep
 1502              	.LVL143:
1137:main.c        ****         Beep(10, As2);
 1503              		.loc 1 1137 0
 1504 0102 6B21     		movs	r1, #107
 1505 0104 0A20     		movs	r0, #10
 1506 0106 FFF7FEFF 		bl	Beep
 1507              	.LVL144:
1138:main.c        ****         Beep(10, D2);
 1508              		.loc 1 1138 0
 1509 010a 5521     		movs	r1, #85
 1510 010c 0A20     		movs	r0, #10
 1511 010e FFF7FEFF 		bl	Beep
 1512              	.LVL145:
1139:main.c        ****         vTaskDelay(100);
 1513              		.loc 1 1139 0
 1514 0112 6420     		movs	r0, #100
 1515 0114 FFF7FEFF 		bl	vTaskDelay
 1516              	.LVL146:
1140:main.c        ****         Beep(10, F1);
 1517              		.loc 1 1140 0
 1518 0118 8F21     		movs	r1, #143
 1519 011a 0A20     		movs	r0, #10
 1520 011c FFF7FEFF 		bl	Beep
 1521              	.LVL147:
1141:main.c        ****         Beep(10, As2);
 1522              		.loc 1 1141 0
 1523 0120 6B21     		movs	r1, #107
 1524 0122 0A20     		movs	r0, #10
 1525 0124 FFF7FEFF 		bl	Beep
 1526              	.LVL148:
1142:main.c        ****         Beep(10, D2);
 1527              		.loc 1 1142 0
 1528 0128 5521     		movs	r1, #85
 1529 012a 0A20     		movs	r0, #10
 1530 012c FFF7FEFF 		bl	Beep
 1531              	.LVL149:
1143:main.c        ****         Beep(10, F2);
ARM GAS  C:\Users\8523~1\AppData\Local\Temp\ccJE8vL2.s 			page 51


 1532              		.loc 1 1143 0
 1533 0130 4821     		movs	r1, #72
 1534 0132 0A20     		movs	r0, #10
 1535 0134 FFF7FEFF 		bl	Beep
 1536              	.LVL150:
1144:main.c        ****         Beep(10, F1);
 1537              		.loc 1 1144 0
 1538 0138 8F21     		movs	r1, #143
 1539 013a 0A20     		movs	r0, #10
 1540 013c FFF7FEFF 		bl	Beep
 1541              	.LVL151:
1145:main.c        ****         Beep(10, As2);
 1542              		.loc 1 1145 0
 1543 0140 6B21     		movs	r1, #107
 1544 0142 0A20     		movs	r0, #10
 1545 0144 FFF7FEFF 		bl	Beep
 1546              	.LVL152:
1146:main.c        ****         Beep(10, D2);
 1547              		.loc 1 1146 0
 1548 0148 5521     		movs	r1, #85
 1549 014a 0A20     		movs	r0, #10
 1550 014c FFF7FEFF 		bl	Beep
 1551              	.LVL153:
1147:main.c        ****         Beep(10, F2);
 1552              		.loc 1 1147 0
 1553 0150 4821     		movs	r1, #72
 1554 0152 0A20     		movs	r0, #10
 1555 0154 FFF7FEFF 		bl	Beep
 1556              	.LVL154:
1148:main.c        ****         Beep(10, F1);
 1557              		.loc 1 1148 0
 1558 0158 8F21     		movs	r1, #143
 1559 015a 0A20     		movs	r0, #10
 1560 015c FFF7FEFF 		bl	Beep
 1561              	.LVL155:
1149:main.c        ****         Beep(10, As2);
 1562              		.loc 1 1149 0
 1563 0160 6B21     		movs	r1, #107
 1564 0162 0A20     		movs	r0, #10
 1565 0164 FFF7FEFF 		bl	Beep
 1566              	.LVL156:
1150:main.c        ****         Beep(10, D2);
 1567              		.loc 1 1150 0
 1568 0168 5521     		movs	r1, #85
 1569 016a 0A20     		movs	r0, #10
 1570 016c FFF7FEFF 		bl	Beep
 1571              	.LVL157:
1151:main.c        ****         Beep(10, F2);
 1572              		.loc 1 1151 0
 1573 0170 4821     		movs	r1, #72
 1574 0172 0A20     		movs	r0, #10
 1575 0174 FFF7FEFF 		bl	Beep
 1576              	.LVL158:
1152:main.c        ****         Beep(10, F1);
 1577              		.loc 1 1152 0
 1578 0178 8F21     		movs	r1, #143
 1579 017a 0A20     		movs	r0, #10
ARM GAS  C:\Users\8523~1\AppData\Local\Temp\ccJE8vL2.s 			page 52


 1580 017c FFF7FEFF 		bl	Beep
 1581              	.LVL159:
1153:main.c        ****         Beep(10, As2);
 1582              		.loc 1 1153 0
 1583 0180 6B21     		movs	r1, #107
 1584 0182 0A20     		movs	r0, #10
 1585 0184 FFF7FEFF 		bl	Beep
 1586              	.LVL160:
1154:main.c        ****         Beep(10, D2);
 1587              		.loc 1 1154 0
 1588 0188 5521     		movs	r1, #85
 1589 018a 0A20     		movs	r0, #10
 1590 018c FFF7FEFF 		bl	Beep
 1591              	.LVL161:
1155:main.c        ****         vTaskDelay(100);
 1592              		.loc 1 1155 0
 1593 0190 6420     		movs	r0, #100
 1594 0192 FFF7FEFF 		bl	vTaskDelay
 1595              	.LVL162:
1156:main.c        ****         Beep(10, F1);
 1596              		.loc 1 1156 0
 1597 0196 8F21     		movs	r1, #143
 1598 0198 0A20     		movs	r0, #10
 1599 019a FFF7FEFF 		bl	Beep
 1600              	.LVL163:
1157:main.c        ****         Beep(10, As2);
 1601              		.loc 1 1157 0
 1602 019e 6B21     		movs	r1, #107
 1603 01a0 0A20     		movs	r0, #10
 1604 01a2 FFF7FEFF 		bl	Beep
 1605              	.LVL164:
1158:main.c        ****         Beep(10, D2);
 1606              		.loc 1 1158 0
 1607 01a6 5521     		movs	r1, #85
 1608 01a8 0A20     		movs	r0, #10
 1609 01aa FFF7FEFF 		bl	Beep
 1610              	.LVL165:
1159:main.c        ****         Beep(10, F2);
 1611              		.loc 1 1159 0
 1612 01ae 4821     		movs	r1, #72
 1613 01b0 0A20     		movs	r0, #10
 1614 01b2 FFF7FEFF 		bl	Beep
 1615              	.LVL166:
1160:main.c        ****         Beep(10, F1);
 1616              		.loc 1 1160 0
 1617 01b6 8F21     		movs	r1, #143
 1618 01b8 0A20     		movs	r0, #10
 1619 01ba FFF7FEFF 		bl	Beep
 1620              	.LVL167:
1161:main.c        ****         Beep(10, As2);
 1621              		.loc 1 1161 0
 1622 01be 6B21     		movs	r1, #107
 1623 01c0 0A20     		movs	r0, #10
 1624 01c2 FFF7FEFF 		bl	Beep
 1625              	.LVL168:
1162:main.c        ****         Beep(10, D2);
 1626              		.loc 1 1162 0
ARM GAS  C:\Users\8523~1\AppData\Local\Temp\ccJE8vL2.s 			page 53


 1627 01c6 5521     		movs	r1, #85
 1628 01c8 0A20     		movs	r0, #10
 1629 01ca FFF7FEFF 		bl	Beep
 1630              	.LVL169:
1163:main.c        ****         Beep(10, F2);
 1631              		.loc 1 1163 0
 1632 01ce 4821     		movs	r1, #72
 1633 01d0 0A20     		movs	r0, #10
 1634 01d2 FFF7FEFF 		bl	Beep
 1635              	.LVL170:
1164:main.c        ****         Beep(10, F1);
 1636              		.loc 1 1164 0
 1637 01d6 8F21     		movs	r1, #143
 1638 01d8 0A20     		movs	r0, #10
 1639 01da FFF7FEFF 		bl	Beep
 1640              	.LVL171:
1165:main.c        ****         Beep(10, As2);
 1641              		.loc 1 1165 0
 1642 01de 6B21     		movs	r1, #107
 1643 01e0 0A20     		movs	r0, #10
 1644 01e2 FFF7FEFF 		bl	Beep
 1645              	.LVL172:
1166:main.c        ****         Beep(10, D2);
 1646              		.loc 1 1166 0
 1647 01e6 5521     		movs	r1, #85
 1648 01e8 0A20     		movs	r0, #10
 1649 01ea FFF7FEFF 		bl	Beep
 1650              	.LVL173:
1167:main.c        ****         Beep(10, F2);
 1651              		.loc 1 1167 0
 1652 01ee 4821     		movs	r1, #72
 1653 01f0 0A20     		movs	r0, #10
 1654 01f2 FFF7FEFF 		bl	Beep
 1655              	.LVL174:
1168:main.c        ****         Beep(10, F1);
 1656              		.loc 1 1168 0
 1657 01f6 8F21     		movs	r1, #143
 1658 01f8 0A20     		movs	r0, #10
 1659 01fa FFF7FEFF 		bl	Beep
 1660              	.LVL175:
1169:main.c        ****         Beep(10, As2);
 1661              		.loc 1 1169 0
 1662 01fe 6B21     		movs	r1, #107
 1663 0200 0A20     		movs	r0, #10
 1664 0202 FFF7FEFF 		bl	Beep
 1665              	.LVL176:
1170:main.c        ****         Beep(10, D2);
 1666              		.loc 1 1170 0
 1667 0206 5521     		movs	r1, #85
 1668 0208 0A20     		movs	r0, #10
 1669 020a FFF7FEFF 		bl	Beep
 1670              	.LVL177:
1171:main.c        ****         vTaskDelay(100);
 1671              		.loc 1 1171 0
 1672 020e 6420     		movs	r0, #100
 1673 0210 FFF7FEFF 		bl	vTaskDelay
 1674              	.LVL178:
ARM GAS  C:\Users\8523~1\AppData\Local\Temp\ccJE8vL2.s 			page 54


1172:main.c        ****         Beep(10, G1);
 1675              		.loc 1 1172 0
 1676 0214 FF21     		movs	r1, #255
 1677 0216 0A20     		movs	r0, #10
 1678 0218 FFF7FEFF 		bl	Beep
 1679              	.LVL179:
1173:main.c        ****         Beep(10, C2);
 1680              		.loc 1 1173 0
 1681 021c 6021     		movs	r1, #96
 1682 021e 0A20     		movs	r0, #10
 1683 0220 FFF7FEFF 		bl	Beep
 1684              	.LVL180:
1174:main.c        ****         Beep(10, E2);
 1685              		.loc 1 1174 0
 1686 0224 4C21     		movs	r1, #76
 1687 0226 0A20     		movs	r0, #10
 1688 0228 FFF7FEFF 		bl	Beep
 1689              	.LVL181:
1175:main.c        ****         Beep(10, G3);
 1690              		.loc 1 1175 0
 1691 022c 4021     		movs	r1, #64
 1692 022e 0A20     		movs	r0, #10
 1693 0230 FFF7FEFF 		bl	Beep
 1694              	.LVL182:
1176:main.c        ****         Beep(10, G1);
 1695              		.loc 1 1176 0
 1696 0234 FF21     		movs	r1, #255
 1697 0236 0A20     		movs	r0, #10
 1698 0238 FFF7FEFF 		bl	Beep
 1699              	.LVL183:
1177:main.c        ****         Beep(10, C2);
 1700              		.loc 1 1177 0
 1701 023c 6021     		movs	r1, #96
 1702 023e 0A20     		movs	r0, #10
 1703 0240 FFF7FEFF 		bl	Beep
 1704              	.LVL184:
1178:main.c        ****         Beep(10, E2);
 1705              		.loc 1 1178 0
 1706 0244 4C21     		movs	r1, #76
 1707 0246 0A20     		movs	r0, #10
 1708 0248 FFF7FEFF 		bl	Beep
 1709              	.LVL185:
1179:main.c        ****         Beep(10, G3);
 1710              		.loc 1 1179 0
 1711 024c 4021     		movs	r1, #64
 1712 024e 0A20     		movs	r0, #10
 1713 0250 FFF7FEFF 		bl	Beep
 1714              	.LVL186:
1180:main.c        ****         Beep(10, G1);
 1715              		.loc 1 1180 0
 1716 0254 FF21     		movs	r1, #255
 1717 0256 0A20     		movs	r0, #10
 1718 0258 FFF7FEFF 		bl	Beep
 1719              	.LVL187:
1181:main.c        ****         Beep(10, C2);
 1720              		.loc 1 1181 0
 1721 025c 6021     		movs	r1, #96
ARM GAS  C:\Users\8523~1\AppData\Local\Temp\ccJE8vL2.s 			page 55


 1722 025e 0A20     		movs	r0, #10
 1723 0260 FFF7FEFF 		bl	Beep
 1724              	.LVL188:
1182:main.c        ****         Beep(10, E2);
 1725              		.loc 1 1182 0
 1726 0264 4C21     		movs	r1, #76
 1727 0266 0A20     		movs	r0, #10
 1728 0268 FFF7FEFF 		bl	Beep
 1729              	.LVL189:
1183:main.c        ****         Beep(10, G3);
 1730              		.loc 1 1183 0
 1731 026c 4021     		movs	r1, #64
 1732 026e 0A20     		movs	r0, #10
 1733 0270 FFF7FEFF 		bl	Beep
 1734              	.LVL190:
1184:main.c        ****         Beep(10, G1);
 1735              		.loc 1 1184 0
 1736 0274 FF21     		movs	r1, #255
 1737 0276 0A20     		movs	r0, #10
 1738 0278 FFF7FEFF 		bl	Beep
 1739              	.LVL191:
1185:main.c        ****         Beep(10, C2);
 1740              		.loc 1 1185 0
 1741 027c 6021     		movs	r1, #96
 1742 027e 0A20     		movs	r0, #10
 1743 0280 FFF7FEFF 		bl	Beep
 1744              	.LVL192:
1186:main.c        ****         Beep(10, E2);
 1745              		.loc 1 1186 0
 1746 0284 4C21     		movs	r1, #76
 1747 0286 0A20     		movs	r0, #10
 1748 0288 FFF7FEFF 		bl	Beep
 1749              	.LVL193:
1187:main.c        ****         vTaskDelay(100);
 1750              		.loc 1 1187 0
 1751 028c 6420     		movs	r0, #100
 1752 028e FFF7FEFF 		bl	vTaskDelay
 1753              	.LVL194:
1188:main.c        ****         Beep(10, G1);
 1754              		.loc 1 1188 0
 1755 0292 FF21     		movs	r1, #255
 1756 0294 0A20     		movs	r0, #10
 1757 0296 FFF7FEFF 		bl	Beep
 1758              	.LVL195:
1189:main.c        ****         Beep(10, C2);
 1759              		.loc 1 1189 0
 1760 029a 6021     		movs	r1, #96
 1761 029c 0A20     		movs	r0, #10
 1762 029e FFF7FEFF 		bl	Beep
 1763              	.LVL196:
1190:main.c        ****         Beep(10, E2);
 1764              		.loc 1 1190 0
 1765 02a2 4C21     		movs	r1, #76
 1766 02a4 0A20     		movs	r0, #10
 1767 02a6 FFF7FEFF 		bl	Beep
 1768              	.LVL197:
1191:main.c        ****         Beep(10, G3);
ARM GAS  C:\Users\8523~1\AppData\Local\Temp\ccJE8vL2.s 			page 56


 1769              		.loc 1 1191 0
 1770 02aa 4021     		movs	r1, #64
 1771 02ac 0A20     		movs	r0, #10
 1772 02ae FFF7FEFF 		bl	Beep
 1773              	.LVL198:
1192:main.c        ****         Beep(10, G1);
 1774              		.loc 1 1192 0
 1775 02b2 FF21     		movs	r1, #255
 1776 02b4 0A20     		movs	r0, #10
 1777 02b6 FFF7FEFF 		bl	Beep
 1778              	.LVL199:
1193:main.c        ****         Beep(10, C2);
 1779              		.loc 1 1193 0
 1780 02ba 6021     		movs	r1, #96
 1781 02bc 0A20     		movs	r0, #10
 1782 02be FFF7FEFF 		bl	Beep
 1783              	.LVL200:
1194:main.c        ****         Beep(10, E2);
 1784              		.loc 1 1194 0
 1785 02c2 4C21     		movs	r1, #76
 1786 02c4 0A20     		movs	r0, #10
 1787 02c6 FFF7FEFF 		bl	Beep
 1788              	.LVL201:
1195:main.c        ****         Beep(10, G3);
 1789              		.loc 1 1195 0
 1790 02ca 4021     		movs	r1, #64
 1791 02cc 0A20     		movs	r0, #10
 1792 02ce FFF7FEFF 		bl	Beep
 1793              	.LVL202:
1196:main.c        ****         Beep(10, G1);
 1794              		.loc 1 1196 0
 1795 02d2 FF21     		movs	r1, #255
 1796 02d4 0A20     		movs	r0, #10
 1797 02d6 FFF7FEFF 		bl	Beep
 1798              	.LVL203:
1197:main.c        ****         Beep(10, C2);
 1799              		.loc 1 1197 0
 1800 02da 6021     		movs	r1, #96
 1801 02dc 0A20     		movs	r0, #10
 1802 02de FFF7FEFF 		bl	Beep
 1803              	.LVL204:
1198:main.c        ****         Beep(10, E2);
 1804              		.loc 1 1198 0
 1805 02e2 4C21     		movs	r1, #76
 1806 02e4 0A20     		movs	r0, #10
 1807 02e6 FFF7FEFF 		bl	Beep
 1808              	.LVL205:
1199:main.c        ****         Beep(10, G3);
 1809              		.loc 1 1199 0
 1810 02ea 4021     		movs	r1, #64
 1811 02ec 0A20     		movs	r0, #10
 1812 02ee FFF7FEFF 		bl	Beep
 1813              	.LVL206:
1200:main.c        ****         Beep(10, G1);
 1814              		.loc 1 1200 0
 1815 02f2 FF21     		movs	r1, #255
 1816 02f4 0A20     		movs	r0, #10
ARM GAS  C:\Users\8523~1\AppData\Local\Temp\ccJE8vL2.s 			page 57


 1817 02f6 FFF7FEFF 		bl	Beep
 1818              	.LVL207:
1201:main.c        ****         Beep(10, C2);
 1819              		.loc 1 1201 0
 1820 02fa 6021     		movs	r1, #96
 1821 02fc 0A20     		movs	r0, #10
 1822 02fe FFF7FEFF 		bl	Beep
 1823              	.LVL208:
1202:main.c        ****         Beep(10, E2);
 1824              		.loc 1 1202 0
 1825 0302 4C21     		movs	r1, #76
 1826 0304 0A20     		movs	r0, #10
 1827 0306 FFF7FEFF 		bl	Beep
 1828              	.LVL209:
1203:main.c        ****         Beep(10, G3);
 1829              		.loc 1 1203 0
 1830 030a 4021     		movs	r1, #64
 1831 030c 0A20     		movs	r0, #10
 1832 030e FFF7FEFF 		bl	Beep
 1833              	.LVL210:
1204:main.c        ****         Beep(10, G1);
 1834              		.loc 1 1204 0
 1835 0312 FF21     		movs	r1, #255
 1836 0314 0A20     		movs	r0, #10
 1837 0316 FFF7FEFF 		bl	Beep
 1838              	.LVL211:
1205:main.c        ****         Beep(10, C2);
 1839              		.loc 1 1205 0
 1840 031a 6021     		movs	r1, #96
 1841 031c 0A20     		movs	r0, #10
 1842 031e FFF7FEFF 		bl	Beep
 1843              	.LVL212:
1206:main.c        ****         Beep(10, E2);
 1844              		.loc 1 1206 0
 1845 0322 4C21     		movs	r1, #76
 1846 0324 0A20     		movs	r0, #10
 1847 0326 FFF7FEFF 		bl	Beep
 1848              	.LVL213:
1207:main.c        ****         Beep(10, G3);
 1849              		.loc 1 1207 0
 1850 032a 4021     		movs	r1, #64
 1851 032c 0A20     		movs	r0, #10
 1852 032e FFF7FEFF 		bl	Beep
 1853              	.LVL214:
1208:main.c        ****         vTaskDelay(50);
 1854              		.loc 1 1208 0
 1855 0332 3220     		movs	r0, #50
 1856 0334 FFF7FEFF 		bl	vTaskDelay
 1857              	.LVL215:
1209:main.c        **** 
1210:main.c        ****                         Beep(250, C2);
 1858              		.loc 1 1210 0
 1859 0338 6021     		movs	r1, #96
 1860 033a FA20     		movs	r0, #250
 1861 033c FFF7FEFF 		bl	Beep
 1862              	.LVL216:
1211:main.c        ****                         
ARM GAS  C:\Users\8523~1\AppData\Local\Temp\ccJE8vL2.s 			page 58


1212:main.c        ****                         Beep(100, E2);
 1863              		.loc 1 1212 0
 1864 0340 4C21     		movs	r1, #76
 1865 0342 6420     		movs	r0, #100
 1866 0344 FFF7FEFF 		bl	Beep
 1867              	.LVL217:
1213:main.c        ****                         Beep(150, F2);
 1868              		.loc 1 1213 0
 1869 0348 4821     		movs	r1, #72
 1870 034a 9620     		movs	r0, #150
 1871 034c FFF7FEFF 		bl	Beep
 1872              	.LVL218:
1214:main.c        ****         Beep(250, F1);
 1873              		.loc 1 1214 0
 1874 0350 8F21     		movs	r1, #143
 1875 0352 FA20     		movs	r0, #250
 1876 0354 FFF7FEFF 		bl	Beep
 1877              	.LVL219:
1215:main.c        ****         Beep(250, A1);
 1878              		.loc 1 1215 0
 1879 0358 E321     		movs	r1, #227
 1880 035a FA20     		movs	r0, #250
 1881 035c FFF7FEFF 		bl	Beep
 1882              	.LVL220:
1216:main.c        ****         Beep(250, C1);
 1883              		.loc 1 1216 0
 1884 0360 BF21     		movs	r1, #191
 1885 0362 FA20     		movs	r0, #250
 1886 0364 FFF7FEFF 		bl	Beep
 1887              	.LVL221:
1217:main.c        ****                         Beep(250, G3);
 1888              		.loc 1 1217 0
 1889 0368 4021     		movs	r1, #64
 1890 036a FA20     		movs	r0, #250
 1891 036c FFF7FEFF 		bl	Beep
 1892              	.LVL222:
1218:main.c        ****                         Beep(250, A3);
 1893              		.loc 1 1218 0
 1894 0370 3921     		movs	r1, #57
 1895 0372 FA20     		movs	r0, #250
 1896 0374 FFF7FEFF 		bl	Beep
 1897              	.LVL223:
1219:main.c        ****                         Beep(250, C3);
 1898              		.loc 1 1219 0
 1899 0378 3021     		movs	r1, #48
 1900 037a FA20     		movs	r0, #250
 1901 037c FFF7FEFF 		bl	Beep
 1902              	.LVL224:
1220:main.c        ****         Beep(250, A1);
 1903              		.loc 1 1220 0
 1904 0380 E321     		movs	r1, #227
 1905 0382 FA20     		movs	r0, #250
 1906 0384 FFF7FEFF 		bl	Beep
 1907              	.LVL225:
1221:main.c        ****                         Beep(250, A3);
 1908              		.loc 1 1221 0
 1909 0388 3921     		movs	r1, #57
ARM GAS  C:\Users\8523~1\AppData\Local\Temp\ccJE8vL2.s 			page 59


 1910 038a FA20     		movs	r0, #250
 1911 038c FFF7FEFF 		bl	Beep
 1912              	.LVL226:
1222:main.c        ****         Beep(250, A1);
 1913              		.loc 1 1222 0
 1914 0390 E321     		movs	r1, #227
 1915 0392 FA20     		movs	r0, #250
 1916 0394 FFF7FEFF 		bl	Beep
 1917              	.LVL227:
1223:main.c        ****         Beep(250, E1);
 1918              		.loc 1 1223 0
 1919 0398 9821     		movs	r1, #152
 1920 039a FA20     		movs	r0, #250
 1921 039c FFF7FEFF 		bl	Beep
 1922              	.LVL228:
1224:main.c        ****         Beep(250, G2);
 1923              		.loc 1 1224 0
 1924 03a0 8021     		movs	r1, #128
 1925 03a2 FA20     		movs	r0, #250
 1926 03a4 FFF7FEFF 		bl	Beep
 1927              	.LVL229:
1225:main.c        ****                         Beep(400, D2);
 1928              		.loc 1 1225 0
 1929 03a8 5521     		movs	r1, #85
 1930 03aa 4FF4C870 		mov	r0, #400
 1931 03ae FFF7FEFF 		bl	Beep
 1932              	.LVL230:
1226:main.c        ****                         Beep(100, E2);
 1933              		.loc 1 1226 0
 1934 03b2 4C21     		movs	r1, #76
 1935 03b4 6420     		movs	r0, #100
 1936 03b6 FFF7FEFF 		bl	Beep
 1937              	.LVL231:
1227:main.c        ****                         Beep(250, D2);
 1938              		.loc 1 1227 0
 1939 03ba 5521     		movs	r1, #85
 1940 03bc FA20     		movs	r0, #250
 1941 03be FFF7FEFF 		bl	Beep
 1942              	.LVL232:
1228:main.c        ****         Beep(250, As1);
 1943              		.loc 1 1228 0
 1944 03c2 D621     		movs	r1, #214
 1945 03c4 FA20     		movs	r0, #250
 1946 03c6 FFF7FEFF 		bl	Beep
 1947              	.LVL233:
1229:main.c        ****         
1230:main.c        ****         Beep(10, A1);
 1948              		.loc 1 1230 0
 1949 03ca E321     		movs	r1, #227
 1950 03cc 0A20     		movs	r0, #10
 1951 03ce FFF7FEFF 		bl	Beep
 1952              	.LVL234:
1231:main.c        ****         Beep(10, E1);
 1953              		.loc 1 1231 0
 1954 03d2 9821     		movs	r1, #152
 1955 03d4 0A20     		movs	r0, #10
 1956 03d6 FFF7FEFF 		bl	Beep
ARM GAS  C:\Users\8523~1\AppData\Local\Temp\ccJE8vL2.s 			page 60


 1957              	.LVL235:
1232:main.c        ****         Beep(10, A2);
 1958              		.loc 1 1232 0
 1959 03da 7221     		movs	r1, #114
 1960 03dc 0A20     		movs	r0, #10
 1961 03de FFF7FEFF 		bl	Beep
 1962              	.LVL236:
1233:main.c        ****         Beep(10, C2);
 1963              		.loc 1 1233 0
 1964 03e2 6021     		movs	r1, #96
 1965 03e4 0A20     		movs	r0, #10
 1966 03e6 FFF7FEFF 		bl	Beep
 1967              	.LVL237:
1234:main.c        ****         Beep(10, A1);
 1968              		.loc 1 1234 0
 1969 03ea E321     		movs	r1, #227
 1970 03ec 0A20     		movs	r0, #10
 1971 03ee FFF7FEFF 		bl	Beep
 1972              	.LVL238:
1235:main.c        ****         Beep(10, E1);
 1973              		.loc 1 1235 0
 1974 03f2 9821     		movs	r1, #152
 1975 03f4 0A20     		movs	r0, #10
 1976 03f6 FFF7FEFF 		bl	Beep
 1977              	.LVL239:
1236:main.c        ****         Beep(10, A2);
 1978              		.loc 1 1236 0
 1979 03fa 7221     		movs	r1, #114
 1980 03fc 0A20     		movs	r0, #10
 1981 03fe FFF7FEFF 		bl	Beep
 1982              	.LVL240:
1237:main.c        ****         Beep(10, C2);
 1983              		.loc 1 1237 0
 1984 0402 6021     		movs	r1, #96
 1985 0404 0A20     		movs	r0, #10
 1986 0406 FFF7FEFF 		bl	Beep
 1987              	.LVL241:
1238:main.c        ****         Beep(10, A1);
 1988              		.loc 1 1238 0
 1989 040a E321     		movs	r1, #227
 1990 040c 0A20     		movs	r0, #10
 1991 040e FFF7FEFF 		bl	Beep
 1992              	.LVL242:
1239:main.c        ****         Beep(10, E1);
 1993              		.loc 1 1239 0
 1994 0412 9821     		movs	r1, #152
 1995 0414 0A20     		movs	r0, #10
 1996 0416 FFF7FEFF 		bl	Beep
 1997              	.LVL243:
1240:main.c        ****         Beep(10, A2);
 1998              		.loc 1 1240 0
 1999 041a 7221     		movs	r1, #114
 2000 041c 0A20     		movs	r0, #10
 2001 041e FFF7FEFF 		bl	Beep
 2002              	.LVL244:
1241:main.c        ****         Beep(10, C2);
 2003              		.loc 1 1241 0
ARM GAS  C:\Users\8523~1\AppData\Local\Temp\ccJE8vL2.s 			page 61


 2004 0422 6021     		movs	r1, #96
 2005 0424 0A20     		movs	r0, #10
 2006 0426 FFF7FEFF 		bl	Beep
 2007              	.LVL245:
1242:main.c        ****         Beep(10, A1);
 2008              		.loc 1 1242 0
 2009 042a E321     		movs	r1, #227
 2010 042c 0A20     		movs	r0, #10
 2011 042e FFF7FEFF 		bl	Beep
 2012              	.LVL246:
1243:main.c        ****         Beep(10, E1);
 2013              		.loc 1 1243 0
 2014 0432 9821     		movs	r1, #152
 2015 0434 0A20     		movs	r0, #10
 2016 0436 FFF7FEFF 		bl	Beep
 2017              	.LVL247:
1244:main.c        ****         Beep(10, A2);
 2018              		.loc 1 1244 0
 2019 043a 7221     		movs	r1, #114
 2020 043c 0A20     		movs	r0, #10
 2021 043e FFF7FEFF 		bl	Beep
 2022              	.LVL248:
1245:main.c        ****         vTaskDelay(100);
 2023              		.loc 1 1245 0
 2024 0442 6420     		movs	r0, #100
 2025 0444 FFF7FEFF 		bl	vTaskDelay
 2026              	.LVL249:
1246:main.c        ****         Beep(10, G1);
 2027              		.loc 1 1246 0
 2028 0448 FF21     		movs	r1, #255
 2029 044a 0A20     		movs	r0, #10
 2030 044c FFF7FEFF 		bl	Beep
 2031              	.LVL250:
1247:main.c        ****         Beep(10, D1);
 2032              		.loc 1 1247 0
 2033 0450 AA21     		movs	r1, #170
 2034 0452 0A20     		movs	r0, #10
 2035 0454 FFF7FEFF 		bl	Beep
 2036              	.LVL251:
1248:main.c        ****         Beep(10, G2);
 2037              		.loc 1 1248 0
 2038 0458 8021     		movs	r1, #128
 2039 045a 0A20     		movs	r0, #10
 2040 045c FFF7FEFF 		bl	Beep
 2041              	.LVL252:
1249:main.c        ****         Beep(10, As2);
 2042              		.loc 1 1249 0
 2043 0460 6B21     		movs	r1, #107
 2044 0462 0A20     		movs	r0, #10
 2045 0464 FFF7FEFF 		bl	Beep
 2046              	.LVL253:
1250:main.c        ****         Beep(10, G1);
 2047              		.loc 1 1250 0
 2048 0468 FF21     		movs	r1, #255
 2049 046a 0A20     		movs	r0, #10
 2050 046c FFF7FEFF 		bl	Beep
 2051              	.LVL254:
ARM GAS  C:\Users\8523~1\AppData\Local\Temp\ccJE8vL2.s 			page 62


1251:main.c        ****         Beep(10, D1);
 2052              		.loc 1 1251 0
 2053 0470 AA21     		movs	r1, #170
 2054 0472 0A20     		movs	r0, #10
 2055 0474 FFF7FEFF 		bl	Beep
 2056              	.LVL255:
1252:main.c        ****         Beep(10, G2);
 2057              		.loc 1 1252 0
 2058 0478 8021     		movs	r1, #128
 2059 047a 0A20     		movs	r0, #10
 2060 047c FFF7FEFF 		bl	Beep
 2061              	.LVL256:
1253:main.c        ****         Beep(10, As2);
 2062              		.loc 1 1253 0
 2063 0480 6B21     		movs	r1, #107
 2064 0482 0A20     		movs	r0, #10
 2065 0484 FFF7FEFF 		bl	Beep
 2066              	.LVL257:
1254:main.c        ****         Beep(10, G1);
 2067              		.loc 1 1254 0
 2068 0488 FF21     		movs	r1, #255
 2069 048a 0A20     		movs	r0, #10
 2070 048c FFF7FEFF 		bl	Beep
 2071              	.LVL258:
1255:main.c        ****         Beep(10, D1);
 2072              		.loc 1 1255 0
 2073 0490 AA21     		movs	r1, #170
 2074 0492 0A20     		movs	r0, #10
 2075 0494 FFF7FEFF 		bl	Beep
 2076              	.LVL259:
1256:main.c        ****         Beep(10, G2);
 2077              		.loc 1 1256 0
 2078 0498 8021     		movs	r1, #128
 2079 049a 0A20     		movs	r0, #10
 2080 049c FFF7FEFF 		bl	Beep
 2081              	.LVL260:
1257:main.c        ****         Beep(10, As2);
 2082              		.loc 1 1257 0
 2083 04a0 6B21     		movs	r1, #107
 2084 04a2 0A20     		movs	r0, #10
 2085 04a4 FFF7FEFF 		bl	Beep
 2086              	.LVL261:
1258:main.c        ****         Beep(10, G1);
 2087              		.loc 1 1258 0
 2088 04a8 FF21     		movs	r1, #255
 2089 04aa 0A20     		movs	r0, #10
 2090 04ac FFF7FEFF 		bl	Beep
 2091              	.LVL262:
1259:main.c        ****         Beep(10, D1);
 2092              		.loc 1 1259 0
 2093 04b0 AA21     		movs	r1, #170
 2094 04b2 0A20     		movs	r0, #10
 2095 04b4 FFF7FEFF 		bl	Beep
 2096              	.LVL263:
1260:main.c        ****         Beep(10, G2);
 2097              		.loc 1 1260 0
 2098 04b8 8021     		movs	r1, #128
ARM GAS  C:\Users\8523~1\AppData\Local\Temp\ccJE8vL2.s 			page 63


 2099 04ba 0A20     		movs	r0, #10
 2100 04bc FFF7FEFF 		bl	Beep
 2101              	.LVL264:
1261:main.c        ****         vTaskDelay(100);
 2102              		.loc 1 1261 0
 2103 04c0 6420     		movs	r0, #100
 2104 04c2 FFF7FEFF 		bl	vTaskDelay
 2105              	.LVL265:
1262:main.c        ****         Beep(10, Cs1);
 2106              		.loc 1 1262 0
 2107 04c6 B421     		movs	r1, #180
 2108 04c8 0A20     		movs	r0, #10
 2109 04ca FFF7FEFF 		bl	Beep
 2110              	.LVL266:
1263:main.c        ****         Beep(10, F1);
 2111              		.loc 1 1263 0
 2112 04ce 8F21     		movs	r1, #143
 2113 04d0 0A20     		movs	r0, #10
 2114 04d2 FFF7FEFF 		bl	Beep
 2115              	.LVL267:
1264:main.c        ****         Beep(10, A2);
 2116              		.loc 1 1264 0
 2117 04d6 7221     		movs	r1, #114
 2118 04d8 0A20     		movs	r0, #10
 2119 04da FFF7FEFF 		bl	Beep
 2120              	.LVL268:
1265:main.c        ****         Beep(10, Cs2);
 2121              		.loc 1 1265 0
 2122 04de 5A21     		movs	r1, #90
 2123 04e0 0A20     		movs	r0, #10
 2124 04e2 FFF7FEFF 		bl	Beep
 2125              	.LVL269:
1266:main.c        ****         Beep(10, Cs1);
 2126              		.loc 1 1266 0
 2127 04e6 B421     		movs	r1, #180
 2128 04e8 0A20     		movs	r0, #10
 2129 04ea FFF7FEFF 		bl	Beep
 2130              	.LVL270:
1267:main.c        ****         Beep(10, F1);
 2131              		.loc 1 1267 0
 2132 04ee 8F21     		movs	r1, #143
 2133 04f0 0A20     		movs	r0, #10
 2134 04f2 FFF7FEFF 		bl	Beep
 2135              	.LVL271:
1268:main.c        ****         Beep(10, A2);
 2136              		.loc 1 1268 0
 2137 04f6 7221     		movs	r1, #114
 2138 04f8 0A20     		movs	r0, #10
 2139 04fa FFF7FEFF 		bl	Beep
 2140              	.LVL272:
1269:main.c        ****         Beep(10, Cs2);
 2141              		.loc 1 1269 0
 2142 04fe 5A21     		movs	r1, #90
 2143 0500 0A20     		movs	r0, #10
 2144 0502 FFF7FEFF 		bl	Beep
 2145              	.LVL273:
1270:main.c        ****         Beep(10, Cs1);
ARM GAS  C:\Users\8523~1\AppData\Local\Temp\ccJE8vL2.s 			page 64


 2146              		.loc 1 1270 0
 2147 0506 B421     		movs	r1, #180
 2148 0508 0A20     		movs	r0, #10
 2149 050a FFF7FEFF 		bl	Beep
 2150              	.LVL274:
1271:main.c        ****         Beep(10, F1);
 2151              		.loc 1 1271 0
 2152 050e 8F21     		movs	r1, #143
 2153 0510 0A20     		movs	r0, #10
 2154 0512 FFF7FEFF 		bl	Beep
 2155              	.LVL275:
1272:main.c        ****         Beep(10, A2);
 2156              		.loc 1 1272 0
 2157 0516 7221     		movs	r1, #114
 2158 0518 0A20     		movs	r0, #10
 2159 051a FFF7FEFF 		bl	Beep
 2160              	.LVL276:
1273:main.c        ****         Beep(10, Cs2);
 2161              		.loc 1 1273 0
 2162 051e 5A21     		movs	r1, #90
 2163 0520 0A20     		movs	r0, #10
 2164 0522 FFF7FEFF 		bl	Beep
 2165              	.LVL277:
1274:main.c        ****         Beep(10, Cs1);
 2166              		.loc 1 1274 0
 2167 0526 B421     		movs	r1, #180
 2168 0528 0A20     		movs	r0, #10
 2169 052a FFF7FEFF 		bl	Beep
 2170              	.LVL278:
1275:main.c        ****         Beep(10, F1);
 2171              		.loc 1 1275 0
 2172 052e 8F21     		movs	r1, #143
 2173 0530 0A20     		movs	r0, #10
 2174 0532 FFF7FEFF 		bl	Beep
 2175              	.LVL279:
1276:main.c        ****         Beep(10, A2);
 2176              		.loc 1 1276 0
 2177 0536 7221     		movs	r1, #114
 2178 0538 0A20     		movs	r0, #10
 2179 053a FFF7FEFF 		bl	Beep
 2180              	.LVL280:
1277:main.c        ****         Beep(10, Cs2);
 2181              		.loc 1 1277 0
 2182 053e 5A21     		movs	r1, #90
 2183 0540 0A20     		movs	r0, #10
 2184 0542 FFF7FEFF 		bl	Beep
 2185              	.LVL281:
 2186 0546 08BD     		pop	{r3, pc}
 2187              		.cfi_endproc
 2188              	.LFE95:
 2189              		.size	champions, .-champions
 2190              		.comm	compass,1,1
 2191              		.comm	timepass,4,4
 2192              		.comm	finishtime,4,4
 2193              		.comm	starttime,4,4
 2194              		.comm	online,4,4
 2195              		.comm	onwhite,4,4
ARM GAS  C:\Users\8523~1\AppData\Local\Temp\ccJE8vL2.s 			page 65


 2196              		.comm	onblack,4,4
 2197              		.comm	obstacle,4,4
 2198              		.comm	distance,4,4
 2199              		.global	y
 2200              		.comm	x,4,4
 2201              		.comm	line,4,4
 2202              		.data
 2203              		.align	2
 2204              		.set	.LANCHOR0,. + 0
 2205              		.type	y, %object
 2206              		.size	y, 4
 2207              	y:
 2208 0000 FFFFFFFF 		.word	-1
 2209              		.section	.rodata.str1.4,"aMS",%progbits,1
 2210              		.align	2
 2211              	.LC0:
 2212 0000 25642025 		.ascii	"%d %d\000"
 2212      6400
 2213 0006 0000     		.space	2
 2214              	.LC1:
 2215 0008 5A756D6F 		.ascii	"Zumo021/position \000"
 2215      3032312F 
 2215      706F7369 
 2215      74696F6E 
 2215      2000
 2216 001a 0000     		.space	2
 2217              	.LC2:
 2218 001c 6D617A65 		.ascii	"maze\000"
 2218      00
 2219 0021 000000   		.space	3
 2220              	.LC3:
 2221 0024 5A756D6F 		.ascii	"Zumo021/ready \000"
 2221      3032312F 
 2221      72656164 
 2221      792000
 2222 0033 00       		.space	1
 2223              	.LC4:
 2224 0034 256400   		.ascii	"%d\000"
 2225 0037 00       		.space	1
 2226              	.LC5:
 2227 0038 5A756D6F 		.ascii	"Zumo021/start \000"
 2227      3032312F 
 2227      73746172 
 2227      742000
 2228 0047 00       		.space	1
 2229              	.LC6:
 2230 0048 5A756D6F 		.ascii	"Zumo021/stop \000"
 2230      3032312F 
 2230      73746F70 
 2230      2000
 2231 0056 0000     		.space	2
 2232              	.LC7:
 2233 0058 5A756D6F 		.ascii	"Zumo021/time \000"
 2233      3032312F 
 2233      74696D65 
 2233      2000
 2234              		.text
ARM GAS  C:\Users\8523~1\AppData\Local\Temp\ccJE8vL2.s 			page 66


 2235              	.Letext0:
 2236              		.file 2 "c:\\program files (x86)\\cypress\\psoc creator\\4.2\\psoc creator\\import\\gnu\\arm\\5.4.
 2237              		.file 3 "c:\\program files (x86)\\cypress\\psoc creator\\4.2\\psoc creator\\import\\gnu\\arm\\5.4.
 2238              		.file 4 "Generated_Source\\PSoC5/cytypes.h"
 2239              		.file 5 "..\\FreeRTOS\\Source\\portable\\GCC\\ARM_CM3/portmacro.h"
 2240              		.file 6 ".\\ZumoLibrary/Reflectance.h"
 2241              		.file 7 "Generated_Source\\PSoC5/core_cm3.h"
 2242              		.file 8 ".\\ZumoLibrary/Ultra.h"
 2243              		.file 9 ".\\ZumoLibrary/mqtt_sender.h"
 2244              		.file 10 "Generated_Source\\PSoC5/MotorDirLeft.h"
 2245              		.file 11 "Generated_Source\\PSoC5/MotorDirRight.h"
 2246              		.file 12 "Generated_Source\\PSoC5/PWM.h"
 2247              		.file 13 "..\\FreeRTOS\\Source\\include/task.h"
 2248              		.file 14 ".\\ZumoLibrary/Motor.h"
 2249              		.file 15 ".\\ZumoLibrary/IR.h"
 2250              		.file 16 "Generated_Source\\PSoC5/SW1.h"
 2251              		.file 17 ".\\ZumoLibrary/Beep.h"
 2252              		.section	.debug_info,"",%progbits
 2253              	.Ldebug_info0:
 2254 0000 961C0000 		.4byte	0x1c96
 2255 0004 0400     		.2byte	0x4
 2256 0006 00000000 		.4byte	.Ldebug_abbrev0
 2257 000a 04       		.byte	0x4
 2258 000b 01       		.uleb128 0x1
 2259 000c 12030000 		.4byte	.LASF67
 2260 0010 0C       		.byte	0xc
 2261 0011 69020000 		.4byte	.LASF68
 2262 0015 AC020000 		.4byte	.LASF69
 2263 0019 00000000 		.4byte	.Ldebug_ranges0+0
 2264 001d 00000000 		.4byte	0
 2265 0021 00000000 		.4byte	.Ldebug_line0
 2266 0025 02       		.uleb128 0x2
 2267 0026 01       		.byte	0x1
 2268 0027 06       		.byte	0x6
 2269 0028 90010000 		.4byte	.LASF0
 2270 002c 02       		.uleb128 0x2
 2271 002d 01       		.byte	0x1
 2272 002e 08       		.byte	0x8
 2273 002f 7D010000 		.4byte	.LASF1
 2274 0033 02       		.uleb128 0x2
 2275 0034 02       		.byte	0x2
 2276 0035 05       		.byte	0x5
 2277 0036 1E000000 		.4byte	.LASF2
 2278 003a 03       		.uleb128 0x3
 2279 003b 52000000 		.4byte	.LASF4
 2280 003f 02       		.byte	0x2
 2281 0040 2B       		.byte	0x2b
 2282 0041 45000000 		.4byte	0x45
 2283 0045 02       		.uleb128 0x2
 2284 0046 02       		.byte	0x2
 2285 0047 07       		.byte	0x7
 2286 0048 3B020000 		.4byte	.LASF3
 2287 004c 03       		.uleb128 0x3
 2288 004d E5020000 		.4byte	.LASF5
 2289 0051 02       		.byte	0x2
 2290 0052 3F       		.byte	0x3f
 2291 0053 57000000 		.4byte	0x57
ARM GAS  C:\Users\8523~1\AppData\Local\Temp\ccJE8vL2.s 			page 67


 2292 0057 02       		.uleb128 0x2
 2293 0058 04       		.byte	0x4
 2294 0059 05       		.byte	0x5
 2295 005a 0D010000 		.4byte	.LASF6
 2296 005e 03       		.uleb128 0x3
 2297 005f 41000000 		.4byte	.LASF7
 2298 0063 02       		.byte	0x2
 2299 0064 41       		.byte	0x41
 2300 0065 69000000 		.4byte	0x69
 2301 0069 02       		.uleb128 0x2
 2302 006a 04       		.byte	0x4
 2303 006b 07       		.byte	0x7
 2304 006c 70020000 		.4byte	.LASF8
 2305 0070 02       		.uleb128 0x2
 2306 0071 08       		.byte	0x8
 2307 0072 05       		.byte	0x5
 2308 0073 CE000000 		.4byte	.LASF9
 2309 0077 02       		.uleb128 0x2
 2310 0078 08       		.byte	0x8
 2311 0079 07       		.byte	0x7
 2312 007a 9C010000 		.4byte	.LASF10
 2313 007e 04       		.uleb128 0x4
 2314 007f 04       		.byte	0x4
 2315 0080 05       		.byte	0x5
 2316 0081 696E7400 		.ascii	"int\000"
 2317 0085 02       		.uleb128 0x2
 2318 0086 04       		.byte	0x4
 2319 0087 07       		.byte	0x7
 2320 0088 C7010000 		.4byte	.LASF11
 2321 008c 03       		.uleb128 0x3
 2322 008d D4010000 		.4byte	.LASF12
 2323 0091 03       		.byte	0x3
 2324 0092 24       		.byte	0x24
 2325 0093 3A000000 		.4byte	0x3a
 2326 0097 03       		.uleb128 0x3
 2327 0098 33020000 		.4byte	.LASF13
 2328 009c 03       		.byte	0x3
 2329 009d 2C       		.byte	0x2c
 2330 009e 4C000000 		.4byte	0x4c
 2331 00a2 03       		.uleb128 0x3
 2332 00a3 00000000 		.4byte	.LASF14
 2333 00a7 03       		.byte	0x3
 2334 00a8 30       		.byte	0x30
 2335 00a9 5E000000 		.4byte	0x5e
 2336 00ad 05       		.uleb128 0x5
 2337 00ae 8C000000 		.4byte	.LASF15
 2338 00b2 04       		.byte	0x4
 2339 00b3 E401     		.2byte	0x1e4
 2340 00b5 2C000000 		.4byte	0x2c
 2341 00b9 05       		.uleb128 0x5
 2342 00ba 62020000 		.4byte	.LASF16
 2343 00be 04       		.byte	0x4
 2344 00bf E601     		.2byte	0x1e6
 2345 00c1 69000000 		.4byte	0x69
 2346 00c5 02       		.uleb128 0x2
 2347 00c6 04       		.byte	0x4
 2348 00c7 04       		.byte	0x4
ARM GAS  C:\Users\8523~1\AppData\Local\Temp\ccJE8vL2.s 			page 68


 2349 00c8 C8000000 		.4byte	.LASF17
 2350 00cc 02       		.uleb128 0x2
 2351 00cd 08       		.byte	0x8
 2352 00ce 04       		.byte	0x4
 2353 00cf 8C020000 		.4byte	.LASF18
 2354 00d3 02       		.uleb128 0x2
 2355 00d4 01       		.byte	0x1
 2356 00d5 08       		.byte	0x8
 2357 00d6 13020000 		.4byte	.LASF19
 2358 00da 02       		.uleb128 0x2
 2359 00db 08       		.byte	0x8
 2360 00dc 04       		.byte	0x4
 2361 00dd 65010000 		.4byte	.LASF20
 2362 00e1 02       		.uleb128 0x2
 2363 00e2 04       		.byte	0x4
 2364 00e3 07       		.byte	0x7
 2365 00e4 28000000 		.4byte	.LASF21
 2366 00e8 03       		.uleb128 0x3
 2367 00e9 5A010000 		.4byte	.LASF22
 2368 00ed 05       		.byte	0x5
 2369 00ee 3F       		.byte	0x3f
 2370 00ef A2000000 		.4byte	0xa2
 2371 00f3 06       		.uleb128 0x6
 2372 00f4 66000000 		.4byte	.LASF70
 2373 00f8 0C       		.byte	0xc
 2374 00f9 06       		.byte	0x6
 2375 00fa 0E       		.byte	0xe
 2376 00fb 42010000 		.4byte	0x142
 2377 00ff 07       		.uleb128 0x7
 2378 0100 6C3300   		.ascii	"l3\000"
 2379 0103 06       		.byte	0x6
 2380 0104 0F       		.byte	0xf
 2381 0105 8C000000 		.4byte	0x8c
 2382 0109 00       		.byte	0
 2383 010a 07       		.uleb128 0x7
 2384 010b 6C3200   		.ascii	"l2\000"
 2385 010e 06       		.byte	0x6
 2386 010f 10       		.byte	0x10
 2387 0110 8C000000 		.4byte	0x8c
 2388 0114 02       		.byte	0x2
 2389 0115 07       		.uleb128 0x7
 2390 0116 6C3100   		.ascii	"l1\000"
 2391 0119 06       		.byte	0x6
 2392 011a 11       		.byte	0x11
 2393 011b 8C000000 		.4byte	0x8c
 2394 011f 04       		.byte	0x4
 2395 0120 07       		.uleb128 0x7
 2396 0121 723100   		.ascii	"r1\000"
 2397 0124 06       		.byte	0x6
 2398 0125 12       		.byte	0x12
 2399 0126 8C000000 		.4byte	0x8c
 2400 012a 06       		.byte	0x6
 2401 012b 07       		.uleb128 0x7
 2402 012c 723200   		.ascii	"r2\000"
 2403 012f 06       		.byte	0x6
 2404 0130 13       		.byte	0x13
 2405 0131 8C000000 		.4byte	0x8c
ARM GAS  C:\Users\8523~1\AppData\Local\Temp\ccJE8vL2.s 			page 69


 2406 0135 08       		.byte	0x8
 2407 0136 07       		.uleb128 0x7
 2408 0137 723300   		.ascii	"r3\000"
 2409 013a 06       		.byte	0x6
 2410 013b 14       		.byte	0x14
 2411 013c 8C000000 		.4byte	0x8c
 2412 0140 0A       		.byte	0xa
 2413 0141 00       		.byte	0
 2414 0142 08       		.uleb128 0x8
 2415 0143 31000000 		.4byte	.LASF23
 2416 0147 01       		.byte	0x1
 2417 0148 E702     		.2byte	0x2e7
 2418 014a 00000000 		.4byte	.LFB86
 2419 014e 78000000 		.4byte	.LFE86-.LFB86
 2420 0152 01       		.uleb128 0x1
 2421 0153 9C       		.byte	0x9c
 2422 0154 BF010000 		.4byte	0x1bf
 2423 0158 09       		.uleb128 0x9
 2424 0159 64696700 		.ascii	"dig\000"
 2425 015d 01       		.byte	0x1
 2426 015e E902     		.2byte	0x2e9
 2427 0160 F3000000 		.4byte	0xf3
 2428 0164 02       		.uleb128 0x2
 2429 0165 91       		.byte	0x91
 2430 0166 6C       		.sleb128 -20
 2431 0167 0A       		.uleb128 0xa
 2432 0168 16000000 		.4byte	.LVL0
 2433 016c B01B0000 		.4byte	0x1bb0
 2434 0170 A1010000 		.4byte	0x1a1
 2435 0174 0B       		.uleb128 0xb
 2436 0175 01       		.uleb128 0x1
 2437 0176 50       		.byte	0x50
 2438 0177 03       		.uleb128 0x3
 2439 0178 0A       		.byte	0xa
 2440 0179 983A     		.2byte	0x3a98
 2441 017b 0B       		.uleb128 0xb
 2442 017c 01       		.uleb128 0x1
 2443 017d 51       		.byte	0x51
 2444 017e 03       		.uleb128 0x3
 2445 017f 0A       		.byte	0xa
 2446 0180 983A     		.2byte	0x3a98
 2447 0182 0B       		.uleb128 0xb
 2448 0183 01       		.uleb128 0x1
 2449 0184 52       		.byte	0x52
 2450 0185 03       		.uleb128 0x3
 2451 0186 0A       		.byte	0xa
 2452 0187 983A     		.2byte	0x3a98
 2453 0189 0B       		.uleb128 0xb
 2454 018a 01       		.uleb128 0x1
 2455 018b 53       		.byte	0x53
 2456 018c 03       		.uleb128 0x3
 2457 018d 0A       		.byte	0xa
 2458 018e 983A     		.2byte	0x3a98
 2459 0190 0B       		.uleb128 0xb
 2460 0191 02       		.uleb128 0x2
 2461 0192 7D       		.byte	0x7d
 2462 0193 00       		.sleb128 0
ARM GAS  C:\Users\8523~1\AppData\Local\Temp\ccJE8vL2.s 			page 70


 2463 0194 03       		.uleb128 0x3
 2464 0195 0A       		.byte	0xa
 2465 0196 983A     		.2byte	0x3a98
 2466 0198 0B       		.uleb128 0xb
 2467 0199 02       		.uleb128 0x2
 2468 019a 7D       		.byte	0x7d
 2469 019b 04       		.sleb128 4
 2470 019c 03       		.uleb128 0x3
 2471 019d 0A       		.byte	0xa
 2472 019e 983A     		.2byte	0x3a98
 2473 01a0 00       		.byte	0
 2474 01a1 0A       		.uleb128 0xa
 2475 01a2 1C000000 		.4byte	.LVL1
 2476 01a6 BB1B0000 		.4byte	0x1bbb
 2477 01aa B5010000 		.4byte	0x1b5
 2478 01ae 0B       		.uleb128 0xb
 2479 01af 01       		.uleb128 0x1
 2480 01b0 50       		.byte	0x50
 2481 01b1 02       		.uleb128 0x2
 2482 01b2 91       		.byte	0x91
 2483 01b3 6C       		.sleb128 -20
 2484 01b4 00       		.byte	0
 2485 01b5 0C       		.uleb128 0xc
 2486 01b6 50000000 		.4byte	.LVL2
 2487 01ba C61B0000 		.4byte	0x1bc6
 2488 01be 00       		.byte	0
 2489 01bf 08       		.uleb128 0x8
 2490 01c0 92000000 		.4byte	.LASF24
 2491 01c4 01       		.byte	0x1
 2492 01c5 FC02     		.2byte	0x2fc
 2493 01c7 00000000 		.4byte	.LFB87
 2494 01cb 94000000 		.4byte	.LFE87-.LFB87
 2495 01cf 01       		.uleb128 0x1
 2496 01d0 9C       		.byte	0x9c
 2497 01d1 F2010000 		.4byte	0x1f2
 2498 01d5 0D       		.uleb128 0xd
 2499 01d6 70000000 		.4byte	.LVL3
 2500 01da D11B0000 		.4byte	0x1bd1
 2501 01de 0B       		.uleb128 0xb
 2502 01df 01       		.uleb128 0x1
 2503 01e0 50       		.byte	0x50
 2504 01e1 05       		.uleb128 0x5
 2505 01e2 03       		.byte	0x3
 2506 01e3 08000000 		.4byte	.LC1
 2507 01e7 0B       		.uleb128 0xb
 2508 01e8 01       		.uleb128 0x1
 2509 01e9 51       		.byte	0x51
 2510 01ea 05       		.uleb128 0x5
 2511 01eb 03       		.byte	0x3
 2512 01ec 00000000 		.4byte	.LC0
 2513 01f0 00       		.byte	0
 2514 01f1 00       		.byte	0
 2515 01f2 0E       		.uleb128 0xe
 2516 01f3 21020000 		.4byte	.LASF71
 2517 01f7 01       		.byte	0x1
 2518 01f8 1303     		.2byte	0x313
 2519 01fa 00000000 		.4byte	.LFB88
ARM GAS  C:\Users\8523~1\AppData\Local\Temp\ccJE8vL2.s 			page 71


 2520 01fe 74000000 		.4byte	.LFE88-.LFB88
 2521 0202 01       		.uleb128 0x1
 2522 0203 9C       		.byte	0x9c
 2523 0204 08       		.uleb128 0x8
 2524 0205 4B010000 		.4byte	.LASF25
 2525 0209 01       		.byte	0x1
 2526 020a 2304     		.2byte	0x423
 2527 020c 00000000 		.4byte	.LFB92
 2528 0210 26000000 		.4byte	.LFE92-.LFB92
 2529 0214 01       		.uleb128 0x1
 2530 0215 9C       		.byte	0x9c
 2531 0216 99020000 		.4byte	0x299
 2532 021a 0F       		.uleb128 0xf
 2533 021b DD010000 		.4byte	.LASF26
 2534 021f 01       		.byte	0x1
 2535 0220 2304     		.2byte	0x423
 2536 0222 AD000000 		.4byte	0xad
 2537 0226 00000000 		.4byte	.LLST0
 2538 022a 0F       		.uleb128 0xf
 2539 022b 4C000000 		.4byte	.LASF27
 2540 022f 01       		.byte	0x1
 2541 0230 2304     		.2byte	0x423
 2542 0232 B9000000 		.4byte	0xb9
 2543 0236 21000000 		.4byte	.LLST1
 2544 023a 0A       		.uleb128 0xa
 2545 023b 0C000000 		.4byte	.LVL6
 2546 023f DC1B0000 		.4byte	0x1bdc
 2547 0243 4D020000 		.4byte	0x24d
 2548 0247 0B       		.uleb128 0xb
 2549 0248 01       		.uleb128 0x1
 2550 0249 50       		.byte	0x50
 2551 024a 01       		.uleb128 0x1
 2552 024b 31       		.byte	0x31
 2553 024c 00       		.byte	0
 2554 024d 0A       		.uleb128 0xa
 2555 024e 12000000 		.4byte	.LVL7
 2556 0252 E71B0000 		.4byte	0x1be7
 2557 0256 60020000 		.4byte	0x260
 2558 025a 0B       		.uleb128 0xb
 2559 025b 01       		.uleb128 0x1
 2560 025c 50       		.byte	0x50
 2561 025d 01       		.uleb128 0x1
 2562 025e 30       		.byte	0x30
 2563 025f 00       		.byte	0
 2564 0260 0A       		.uleb128 0xa
 2565 0261 18000000 		.4byte	.LVL8
 2566 0265 F21B0000 		.4byte	0x1bf2
 2567 0269 74020000 		.4byte	0x274
 2568 026d 0B       		.uleb128 0xb
 2569 026e 01       		.uleb128 0x1
 2570 026f 50       		.byte	0x50
 2571 0270 02       		.uleb128 0x2
 2572 0271 74       		.byte	0x74
 2573 0272 00       		.sleb128 0
 2574 0273 00       		.byte	0
 2575 0274 0A       		.uleb128 0xa
 2576 0275 1E000000 		.4byte	.LVL9
ARM GAS  C:\Users\8523~1\AppData\Local\Temp\ccJE8vL2.s 			page 72


 2577 0279 FD1B0000 		.4byte	0x1bfd
 2578 027d 88020000 		.4byte	0x288
 2579 0281 0B       		.uleb128 0xb
 2580 0282 01       		.uleb128 0x1
 2581 0283 50       		.byte	0x50
 2582 0284 02       		.uleb128 0x2
 2583 0285 74       		.byte	0x74
 2584 0286 00       		.sleb128 0
 2585 0287 00       		.byte	0
 2586 0288 0D       		.uleb128 0xd
 2587 0289 24000000 		.4byte	.LVL10
 2588 028d 081C0000 		.4byte	0x1c08
 2589 0291 0B       		.uleb128 0xb
 2590 0292 01       		.uleb128 0x1
 2591 0293 50       		.byte	0x50
 2592 0294 02       		.uleb128 0x2
 2593 0295 75       		.byte	0x75
 2594 0296 00       		.sleb128 0
 2595 0297 00       		.byte	0
 2596 0298 00       		.byte	0
 2597 0299 08       		.uleb128 0x8
 2598 029a 00030000 		.4byte	.LASF28
 2599 029e 01       		.byte	0x1
 2600 029f FF03     		.2byte	0x3ff
 2601 02a1 00000000 		.4byte	.LFB90
 2602 02a5 2C000000 		.4byte	.LFE90-.LFB90
 2603 02a9 01       		.uleb128 0x1
 2604 02aa 9C       		.byte	0x9c
 2605 02ab 14030000 		.4byte	0x314
 2606 02af 10       		.uleb128 0x10
 2607 02b0 12000000 		.4byte	.LBB2
 2608 02b4 14000000 		.4byte	.LBE2-.LBB2
 2609 02b8 E5020000 		.4byte	0x2e5
 2610 02bc 11       		.uleb128 0x11
 2611 02bd 6900     		.ascii	"i\000"
 2612 02bf 01       		.byte	0x1
 2613 02c0 0404     		.2byte	0x404
 2614 02c2 7E000000 		.4byte	0x7e
 2615 02c6 0C       		.uleb128 0xc
 2616 02c7 16000000 		.4byte	.LVL13
 2617 02cb 42010000 		.4byte	0x142
 2618 02cf 0D       		.uleb128 0xd
 2619 02d0 1E000000 		.4byte	.LVL14
 2620 02d4 04020000 		.4byte	0x204
 2621 02d8 0B       		.uleb128 0xb
 2622 02d9 01       		.uleb128 0x1
 2623 02da 50       		.byte	0x50
 2624 02db 02       		.uleb128 0x2
 2625 02dc 08       		.byte	0x8
 2626 02dd 64       		.byte	0x64
 2627 02de 0B       		.uleb128 0xb
 2628 02df 01       		.uleb128 0x1
 2629 02e0 51       		.byte	0x51
 2630 02e1 01       		.uleb128 0x1
 2631 02e2 30       		.byte	0x30
 2632 02e3 00       		.byte	0
 2633 02e4 00       		.byte	0
ARM GAS  C:\Users\8523~1\AppData\Local\Temp\ccJE8vL2.s 			page 73


 2634 02e5 0A       		.uleb128 0xa
 2635 02e6 0A000000 		.4byte	.LVL11
 2636 02ea 04020000 		.4byte	0x204
 2637 02ee FF020000 		.4byte	0x2ff
 2638 02f2 0B       		.uleb128 0xb
 2639 02f3 01       		.uleb128 0x1
 2640 02f4 50       		.byte	0x50
 2641 02f5 02       		.uleb128 0x2
 2642 02f6 08       		.byte	0x8
 2643 02f7 64       		.byte	0x64
 2644 02f8 0B       		.uleb128 0xb
 2645 02f9 01       		.uleb128 0x1
 2646 02fa 51       		.byte	0x51
 2647 02fb 02       		.uleb128 0x2
 2648 02fc 08       		.byte	0x8
 2649 02fd C8       		.byte	0xc8
 2650 02fe 00       		.byte	0
 2651 02ff 0D       		.uleb128 0xd
 2652 0300 12000000 		.4byte	.LVL12
 2653 0304 141C0000 		.4byte	0x1c14
 2654 0308 0B       		.uleb128 0xb
 2655 0309 01       		.uleb128 0x1
 2656 030a 50       		.byte	0x50
 2657 030b 01       		.uleb128 0x1
 2658 030c 30       		.byte	0x30
 2659 030d 0B       		.uleb128 0xb
 2660 030e 01       		.uleb128 0x1
 2661 030f 51       		.byte	0x51
 2662 0310 01       		.uleb128 0x1
 2663 0311 30       		.byte	0x30
 2664 0312 00       		.byte	0
 2665 0313 00       		.byte	0
 2666 0314 08       		.uleb128 0x8
 2667 0315 03020000 		.4byte	.LASF29
 2668 0319 01       		.byte	0x1
 2669 031a 2C04     		.2byte	0x42c
 2670 031c 00000000 		.4byte	.LFB93
 2671 0320 26000000 		.4byte	.LFE93-.LFB93
 2672 0324 01       		.uleb128 0x1
 2673 0325 9C       		.byte	0x9c
 2674 0326 A9030000 		.4byte	0x3a9
 2675 032a 0F       		.uleb128 0xf
 2676 032b DD010000 		.4byte	.LASF26
 2677 032f 01       		.byte	0x1
 2678 0330 2C04     		.2byte	0x42c
 2679 0332 AD000000 		.4byte	0xad
 2680 0336 3F000000 		.4byte	.LLST2
 2681 033a 0F       		.uleb128 0xf
 2682 033b 4C000000 		.4byte	.LASF27
 2683 033f 01       		.byte	0x1
 2684 0340 2C04     		.2byte	0x42c
 2685 0342 B9000000 		.4byte	0xb9
 2686 0346 60000000 		.4byte	.LLST3
 2687 034a 0A       		.uleb128 0xa
 2688 034b 0C000000 		.4byte	.LVL17
 2689 034f DC1B0000 		.4byte	0x1bdc
 2690 0353 5D030000 		.4byte	0x35d
ARM GAS  C:\Users\8523~1\AppData\Local\Temp\ccJE8vL2.s 			page 74


 2691 0357 0B       		.uleb128 0xb
 2692 0358 01       		.uleb128 0x1
 2693 0359 50       		.byte	0x50
 2694 035a 01       		.uleb128 0x1
 2695 035b 30       		.byte	0x30
 2696 035c 00       		.byte	0
 2697 035d 0A       		.uleb128 0xa
 2698 035e 12000000 		.4byte	.LVL18
 2699 0362 E71B0000 		.4byte	0x1be7
 2700 0366 70030000 		.4byte	0x370
 2701 036a 0B       		.uleb128 0xb
 2702 036b 01       		.uleb128 0x1
 2703 036c 50       		.byte	0x50
 2704 036d 01       		.uleb128 0x1
 2705 036e 31       		.byte	0x31
 2706 036f 00       		.byte	0
 2707 0370 0A       		.uleb128 0xa
 2708 0371 18000000 		.4byte	.LVL19
 2709 0375 F21B0000 		.4byte	0x1bf2
 2710 0379 84030000 		.4byte	0x384
 2711 037d 0B       		.uleb128 0xb
 2712 037e 01       		.uleb128 0x1
 2713 037f 50       		.byte	0x50
 2714 0380 02       		.uleb128 0x2
 2715 0381 74       		.byte	0x74
 2716 0382 00       		.sleb128 0
 2717 0383 00       		.byte	0
 2718 0384 0A       		.uleb128 0xa
 2719 0385 1E000000 		.4byte	.LVL20
 2720 0389 FD1B0000 		.4byte	0x1bfd
 2721 038d 98030000 		.4byte	0x398
 2722 0391 0B       		.uleb128 0xb
 2723 0392 01       		.uleb128 0x1
 2724 0393 50       		.byte	0x50
 2725 0394 02       		.uleb128 0x2
 2726 0395 74       		.byte	0x74
 2727 0396 00       		.sleb128 0
 2728 0397 00       		.byte	0
 2729 0398 0D       		.uleb128 0xd
 2730 0399 24000000 		.4byte	.LVL21
 2731 039d 081C0000 		.4byte	0x1c08
 2732 03a1 0B       		.uleb128 0xb
 2733 03a2 01       		.uleb128 0x1
 2734 03a3 50       		.byte	0x50
 2735 03a4 02       		.uleb128 0x2
 2736 03a5 75       		.byte	0x75
 2737 03a6 00       		.sleb128 0
 2738 03a7 00       		.byte	0
 2739 03a8 00       		.byte	0
 2740 03a9 08       		.uleb128 0x8
 2741 03aa 6F000000 		.4byte	.LASF30
 2742 03ae 01       		.byte	0x1
 2743 03af 1104     		.2byte	0x411
 2744 03b1 00000000 		.4byte	.LFB91
 2745 03b5 2C000000 		.4byte	.LFE91-.LFB91
 2746 03b9 01       		.uleb128 0x1
 2747 03ba 9C       		.byte	0x9c
ARM GAS  C:\Users\8523~1\AppData\Local\Temp\ccJE8vL2.s 			page 75


 2748 03bb 24040000 		.4byte	0x424
 2749 03bf 10       		.uleb128 0x10
 2750 03c0 12000000 		.4byte	.LBB3
 2751 03c4 14000000 		.4byte	.LBE3-.LBB3
 2752 03c8 F5030000 		.4byte	0x3f5
 2753 03cc 11       		.uleb128 0x11
 2754 03cd 6900     		.ascii	"i\000"
 2755 03cf 01       		.byte	0x1
 2756 03d0 1604     		.2byte	0x416
 2757 03d2 7E000000 		.4byte	0x7e
 2758 03d6 0C       		.uleb128 0xc
 2759 03d7 16000000 		.4byte	.LVL24
 2760 03db 42010000 		.4byte	0x142
 2761 03df 0D       		.uleb128 0xd
 2762 03e0 1E000000 		.4byte	.LVL25
 2763 03e4 14030000 		.4byte	0x314
 2764 03e8 0B       		.uleb128 0xb
 2765 03e9 01       		.uleb128 0x1
 2766 03ea 50       		.byte	0x50
 2767 03eb 02       		.uleb128 0x2
 2768 03ec 08       		.byte	0x8
 2769 03ed 64       		.byte	0x64
 2770 03ee 0B       		.uleb128 0xb
 2771 03ef 01       		.uleb128 0x1
 2772 03f0 51       		.byte	0x51
 2773 03f1 01       		.uleb128 0x1
 2774 03f2 30       		.byte	0x30
 2775 03f3 00       		.byte	0
 2776 03f4 00       		.byte	0
 2777 03f5 0A       		.uleb128 0xa
 2778 03f6 0A000000 		.4byte	.LVL22
 2779 03fa 14030000 		.4byte	0x314
 2780 03fe 0F040000 		.4byte	0x40f
 2781 0402 0B       		.uleb128 0xb
 2782 0403 01       		.uleb128 0x1
 2783 0404 50       		.byte	0x50
 2784 0405 02       		.uleb128 0x2
 2785 0406 08       		.byte	0x8
 2786 0407 64       		.byte	0x64
 2787 0408 0B       		.uleb128 0xb
 2788 0409 01       		.uleb128 0x1
 2789 040a 51       		.byte	0x51
 2790 040b 02       		.uleb128 0x2
 2791 040c 08       		.byte	0x8
 2792 040d C8       		.byte	0xc8
 2793 040e 00       		.byte	0
 2794 040f 0D       		.uleb128 0xd
 2795 0410 12000000 		.4byte	.LVL23
 2796 0414 141C0000 		.4byte	0x1c14
 2797 0418 0B       		.uleb128 0xb
 2798 0419 01       		.uleb128 0x1
 2799 041a 50       		.byte	0x50
 2800 041b 01       		.uleb128 0x1
 2801 041c 30       		.byte	0x30
 2802 041d 0B       		.uleb128 0xb
 2803 041e 01       		.uleb128 0x1
 2804 041f 51       		.byte	0x51
ARM GAS  C:\Users\8523~1\AppData\Local\Temp\ccJE8vL2.s 			page 76


 2805 0420 01       		.uleb128 0x1
 2806 0421 30       		.byte	0x30
 2807 0422 00       		.byte	0
 2808 0423 00       		.byte	0
 2809 0424 08       		.uleb128 0x8
 2810 0425 16010000 		.4byte	.LASF31
 2811 0429 01       		.byte	0x1
 2812 042a 2D03     		.2byte	0x32d
 2813 042c 00000000 		.4byte	.LFB89
 2814 0430 1C030000 		.4byte	.LFE89-.LFB89
 2815 0434 01       		.uleb128 0x1
 2816 0435 9C       		.byte	0x9c
 2817 0436 C4060000 		.4byte	0x6c4
 2818 043a 0A       		.uleb128 0xa
 2819 043b 12000000 		.4byte	.LVL26
 2820 043f 141C0000 		.4byte	0x1c14
 2821 0443 53040000 		.4byte	0x453
 2822 0447 0B       		.uleb128 0xb
 2823 0448 01       		.uleb128 0x1
 2824 0449 50       		.byte	0x50
 2825 044a 02       		.uleb128 0x2
 2826 044b 08       		.byte	0x8
 2827 044c 4B       		.byte	0x4b
 2828 044d 0B       		.uleb128 0xb
 2829 044e 01       		.uleb128 0x1
 2830 044f 51       		.byte	0x51
 2831 0450 01       		.uleb128 0x1
 2832 0451 30       		.byte	0x30
 2833 0452 00       		.byte	0
 2834 0453 0A       		.uleb128 0xa
 2835 0454 22000000 		.4byte	.LVL27
 2836 0458 1F1C0000 		.4byte	0x1c1f
 2837 045c 71040000 		.4byte	0x471
 2838 0460 0B       		.uleb128 0xb
 2839 0461 01       		.uleb128 0x1
 2840 0462 50       		.byte	0x50
 2841 0463 01       		.uleb128 0x1
 2842 0464 30       		.byte	0x30
 2843 0465 0B       		.uleb128 0xb
 2844 0466 01       		.uleb128 0x1
 2845 0467 51       		.byte	0x51
 2846 0468 02       		.uleb128 0x2
 2847 0469 08       		.byte	0x8
 2848 046a 64       		.byte	0x64
 2849 046b 0B       		.uleb128 0xb
 2850 046c 01       		.uleb128 0x1
 2851 046d 52       		.byte	0x52
 2852 046e 01       		.uleb128 0x1
 2853 046f 30       		.byte	0x30
 2854 0470 00       		.byte	0
 2855 0471 0A       		.uleb128 0xa
 2856 0472 32000000 		.4byte	.LVL28
 2857 0476 1F1C0000 		.4byte	0x1c1f
 2858 047a 8F040000 		.4byte	0x48f
 2859 047e 0B       		.uleb128 0xb
 2860 047f 01       		.uleb128 0x1
 2861 0480 50       		.byte	0x50
ARM GAS  C:\Users\8523~1\AppData\Local\Temp\ccJE8vL2.s 			page 77


 2862 0481 02       		.uleb128 0x2
 2863 0482 08       		.byte	0x8
 2864 0483 64       		.byte	0x64
 2865 0484 0B       		.uleb128 0xb
 2866 0485 01       		.uleb128 0x1
 2867 0486 51       		.byte	0x51
 2868 0487 01       		.uleb128 0x1
 2869 0488 30       		.byte	0x30
 2870 0489 0B       		.uleb128 0xb
 2871 048a 01       		.uleb128 0x1
 2872 048b 52       		.byte	0x52
 2873 048c 01       		.uleb128 0x1
 2874 048d 30       		.byte	0x30
 2875 048e 00       		.byte	0
 2876 048f 0A       		.uleb128 0xa
 2877 0490 46000000 		.4byte	.LVL29
 2878 0494 1F1C0000 		.4byte	0x1c1f
 2879 0498 AD040000 		.4byte	0x4ad
 2880 049c 0B       		.uleb128 0xb
 2881 049d 01       		.uleb128 0x1
 2882 049e 50       		.byte	0x50
 2883 049f 01       		.uleb128 0x1
 2884 04a0 30       		.byte	0x30
 2885 04a1 0B       		.uleb128 0xb
 2886 04a2 01       		.uleb128 0x1
 2887 04a3 51       		.byte	0x51
 2888 04a4 02       		.uleb128 0x2
 2889 04a5 09       		.byte	0x9
 2890 04a6 96       		.byte	0x96
 2891 04a7 0B       		.uleb128 0xb
 2892 04a8 01       		.uleb128 0x1
 2893 04a9 52       		.byte	0x52
 2894 04aa 01       		.uleb128 0x1
 2895 04ab 30       		.byte	0x30
 2896 04ac 00       		.byte	0
 2897 04ad 0A       		.uleb128 0xa
 2898 04ae 58000000 		.4byte	.LVL30
 2899 04b2 1F1C0000 		.4byte	0x1c1f
 2900 04b6 CB040000 		.4byte	0x4cb
 2901 04ba 0B       		.uleb128 0xb
 2902 04bb 01       		.uleb128 0x1
 2903 04bc 50       		.byte	0x50
 2904 04bd 02       		.uleb128 0x2
 2905 04be 09       		.byte	0x9
 2906 04bf 96       		.byte	0x96
 2907 04c0 0B       		.uleb128 0xb
 2908 04c1 01       		.uleb128 0x1
 2909 04c2 51       		.byte	0x51
 2910 04c3 01       		.uleb128 0x1
 2911 04c4 30       		.byte	0x30
 2912 04c5 0B       		.uleb128 0xb
 2913 04c6 01       		.uleb128 0x1
 2914 04c7 52       		.byte	0x52
 2915 04c8 01       		.uleb128 0x1
 2916 04c9 30       		.byte	0x30
 2917 04ca 00       		.byte	0
 2918 04cb 0A       		.uleb128 0xa
ARM GAS  C:\Users\8523~1\AppData\Local\Temp\ccJE8vL2.s 			page 78


 2919 04cc 7C000000 		.4byte	.LVL31
 2920 04d0 081C0000 		.4byte	0x1c08
 2921 04d4 DF040000 		.4byte	0x4df
 2922 04d8 0B       		.uleb128 0xb
 2923 04d9 01       		.uleb128 0x1
 2924 04da 50       		.byte	0x50
 2925 04db 02       		.uleb128 0x2
 2926 04dc 08       		.byte	0x8
 2927 04dd FA       		.byte	0xfa
 2928 04de 00       		.byte	0
 2929 04df 0C       		.uleb128 0xc
 2930 04e0 80000000 		.4byte	.LVL32
 2931 04e4 99020000 		.4byte	0x299
 2932 04e8 0C       		.uleb128 0xc
 2933 04e9 94000000 		.4byte	.LVL33
 2934 04ed A9030000 		.4byte	0x3a9
 2935 04f1 0C       		.uleb128 0xc
 2936 04f2 98000000 		.4byte	.LVL34
 2937 04f6 A9030000 		.4byte	0x3a9
 2938 04fa 0A       		.uleb128 0xa
 2939 04fb AC000000 		.4byte	.LVL35
 2940 04ff 081C0000 		.4byte	0x1c08
 2941 0503 0E050000 		.4byte	0x50e
 2942 0507 0B       		.uleb128 0xb
 2943 0508 01       		.uleb128 0x1
 2944 0509 50       		.byte	0x50
 2945 050a 02       		.uleb128 0x2
 2946 050b 08       		.byte	0x8
 2947 050c FA       		.byte	0xfa
 2948 050d 00       		.byte	0
 2949 050e 0C       		.uleb128 0xc
 2950 050f B0000000 		.4byte	.LVL36
 2951 0513 A9030000 		.4byte	0x3a9
 2952 0517 0C       		.uleb128 0xc
 2953 0518 C4000000 		.4byte	.LVL37
 2954 051c 99020000 		.4byte	0x299
 2955 0520 0C       		.uleb128 0xc
 2956 0521 C8000000 		.4byte	.LVL38
 2957 0525 99020000 		.4byte	0x299
 2958 0529 0A       		.uleb128 0xa
 2959 052a F2000000 		.4byte	.LVL39
 2960 052e 081C0000 		.4byte	0x1c08
 2961 0532 3D050000 		.4byte	0x53d
 2962 0536 0B       		.uleb128 0xb
 2963 0537 01       		.uleb128 0x1
 2964 0538 50       		.byte	0x50
 2965 0539 02       		.uleb128 0x2
 2966 053a 08       		.byte	0x8
 2967 053b FA       		.byte	0xfa
 2968 053c 00       		.byte	0
 2969 053d 0C       		.uleb128 0xc
 2970 053e F6000000 		.4byte	.LVL40
 2971 0542 A9030000 		.4byte	0x3a9
 2972 0546 0C       		.uleb128 0xc
 2973 0547 0A010000 		.4byte	.LVL41
 2974 054b 99020000 		.4byte	0x299
 2975 054f 0A       		.uleb128 0xa
ARM GAS  C:\Users\8523~1\AppData\Local\Temp\ccJE8vL2.s 			page 79


 2976 0550 36010000 		.4byte	.LVL42
 2977 0554 081C0000 		.4byte	0x1c08
 2978 0558 63050000 		.4byte	0x563
 2979 055c 0B       		.uleb128 0xb
 2980 055d 01       		.uleb128 0x1
 2981 055e 50       		.byte	0x50
 2982 055f 02       		.uleb128 0x2
 2983 0560 08       		.byte	0x8
 2984 0561 FA       		.byte	0xfa
 2985 0562 00       		.byte	0
 2986 0563 0C       		.uleb128 0xc
 2987 0564 3A010000 		.4byte	.LVL43
 2988 0568 A9030000 		.4byte	0x3a9
 2989 056c 0C       		.uleb128 0xc
 2990 056d 4E010000 		.4byte	.LVL44
 2991 0571 A9030000 		.4byte	0x3a9
 2992 0575 0A       		.uleb128 0xa
 2993 0576 76010000 		.4byte	.LVL45
 2994 057a 081C0000 		.4byte	0x1c08
 2995 057e 89050000 		.4byte	0x589
 2996 0582 0B       		.uleb128 0xb
 2997 0583 01       		.uleb128 0x1
 2998 0584 50       		.byte	0x50
 2999 0585 02       		.uleb128 0x2
 3000 0586 08       		.byte	0x8
 3001 0587 FA       		.byte	0xfa
 3002 0588 00       		.byte	0
 3003 0589 0C       		.uleb128 0xc
 3004 058a 7A010000 		.4byte	.LVL46
 3005 058e 99020000 		.4byte	0x299
 3006 0592 0C       		.uleb128 0xc
 3007 0593 8E010000 		.4byte	.LVL47
 3008 0597 A9030000 		.4byte	0x3a9
 3009 059b 0A       		.uleb128 0xa
 3010 059c B8010000 		.4byte	.LVL48
 3011 05a0 081C0000 		.4byte	0x1c08
 3012 05a4 AF050000 		.4byte	0x5af
 3013 05a8 0B       		.uleb128 0xb
 3014 05a9 01       		.uleb128 0x1
 3015 05aa 50       		.byte	0x50
 3016 05ab 02       		.uleb128 0x2
 3017 05ac 08       		.byte	0x8
 3018 05ad FA       		.byte	0xfa
 3019 05ae 00       		.byte	0
 3020 05af 0C       		.uleb128 0xc
 3021 05b0 BC010000 		.4byte	.LVL49
 3022 05b4 99020000 		.4byte	0x299
 3023 05b8 0C       		.uleb128 0xc
 3024 05b9 D0010000 		.4byte	.LVL50
 3025 05bd 99020000 		.4byte	0x299
 3026 05c1 0A       		.uleb128 0xa
 3027 05c2 06020000 		.4byte	.LVL51
 3028 05c6 081C0000 		.4byte	0x1c08
 3029 05ca D5050000 		.4byte	0x5d5
 3030 05ce 0B       		.uleb128 0xb
 3031 05cf 01       		.uleb128 0x1
 3032 05d0 50       		.byte	0x50
ARM GAS  C:\Users\8523~1\AppData\Local\Temp\ccJE8vL2.s 			page 80


 3033 05d1 02       		.uleb128 0x2
 3034 05d2 08       		.byte	0x8
 3035 05d3 32       		.byte	0x32
 3036 05d4 00       		.byte	0
 3037 05d5 0C       		.uleb128 0xc
 3038 05d6 0A020000 		.4byte	.LVL52
 3039 05da 42010000 		.4byte	0x142
 3040 05de 0C       		.uleb128 0xc
 3041 05df 0E020000 		.4byte	.LVL53
 3042 05e3 F2010000 		.4byte	0x1f2
 3043 05e7 0C       		.uleb128 0xc
 3044 05e8 12020000 		.4byte	.LVL54
 3045 05ec BF010000 		.4byte	0x1bf
 3046 05f0 0A       		.uleb128 0xa
 3047 05f1 3C020000 		.4byte	.LVL55
 3048 05f5 081C0000 		.4byte	0x1c08
 3049 05f9 04060000 		.4byte	0x604
 3050 05fd 0B       		.uleb128 0xb
 3051 05fe 01       		.uleb128 0x1
 3052 05ff 50       		.byte	0x50
 3053 0600 02       		.uleb128 0x2
 3054 0601 08       		.byte	0x8
 3055 0602 C8       		.byte	0xc8
 3056 0603 00       		.byte	0
 3057 0604 0C       		.uleb128 0xc
 3058 0605 40020000 		.4byte	.LVL56
 3059 0609 A9030000 		.4byte	0x3a9
 3060 060d 0A       		.uleb128 0xa
 3061 060e 52020000 		.4byte	.LVL57
 3062 0612 081C0000 		.4byte	0x1c08
 3063 0616 21060000 		.4byte	0x621
 3064 061a 0B       		.uleb128 0xb
 3065 061b 01       		.uleb128 0x1
 3066 061c 50       		.byte	0x50
 3067 061d 02       		.uleb128 0x2
 3068 061e 08       		.byte	0x8
 3069 061f C8       		.byte	0xc8
 3070 0620 00       		.byte	0
 3071 0621 0C       		.uleb128 0xc
 3072 0622 56020000 		.4byte	.LVL58
 3073 0626 99020000 		.4byte	0x299
 3074 062a 0A       		.uleb128 0xa
 3075 062b 9E020000 		.4byte	.LVL59
 3076 062f 081C0000 		.4byte	0x1c08
 3077 0633 3E060000 		.4byte	0x63e
 3078 0637 0B       		.uleb128 0xb
 3079 0638 01       		.uleb128 0x1
 3080 0639 50       		.byte	0x50
 3081 063a 02       		.uleb128 0x2
 3082 063b 08       		.byte	0x8
 3083 063c 32       		.byte	0x32
 3084 063d 00       		.byte	0
 3085 063e 0C       		.uleb128 0xc
 3086 063f A2020000 		.4byte	.LVL60
 3087 0643 42010000 		.4byte	0x142
 3088 0647 0C       		.uleb128 0xc
 3089 0648 A6020000 		.4byte	.LVL61
ARM GAS  C:\Users\8523~1\AppData\Local\Temp\ccJE8vL2.s 			page 81


 3090 064c F2010000 		.4byte	0x1f2
 3091 0650 0C       		.uleb128 0xc
 3092 0651 AA020000 		.4byte	.LVL62
 3093 0655 BF010000 		.4byte	0x1bf
 3094 0659 0C       		.uleb128 0xc
 3095 065a CA020000 		.4byte	.LVL63
 3096 065e 42010000 		.4byte	0x142
 3097 0662 0C       		.uleb128 0xc
 3098 0663 CE020000 		.4byte	.LVL64
 3099 0667 F2010000 		.4byte	0x1f2
 3100 066b 0C       		.uleb128 0xc
 3101 066c D2020000 		.4byte	.LVL65
 3102 0670 BF010000 		.4byte	0x1bf
 3103 0674 0A       		.uleb128 0xa
 3104 0675 E0020000 		.4byte	.LVL66
 3105 0679 081C0000 		.4byte	0x1c08
 3106 067d 88060000 		.4byte	0x688
 3107 0681 0B       		.uleb128 0xb
 3108 0682 01       		.uleb128 0x1
 3109 0683 50       		.byte	0x50
 3110 0684 02       		.uleb128 0x2
 3111 0685 08       		.byte	0x8
 3112 0686 C8       		.byte	0xc8
 3113 0687 00       		.byte	0
 3114 0688 0C       		.uleb128 0xc
 3115 0689 E4020000 		.4byte	.LVL67
 3116 068d A9030000 		.4byte	0x3a9
 3117 0691 0A       		.uleb128 0xa
 3118 0692 F6020000 		.4byte	.LVL68
 3119 0696 081C0000 		.4byte	0x1c08
 3120 069a A5060000 		.4byte	0x6a5
 3121 069e 0B       		.uleb128 0xb
 3122 069f 01       		.uleb128 0x1
 3123 06a0 50       		.byte	0x50
 3124 06a1 02       		.uleb128 0x2
 3125 06a2 08       		.byte	0x8
 3126 06a3 C8       		.byte	0xc8
 3127 06a4 00       		.byte	0
 3128 06a5 0C       		.uleb128 0xc
 3129 06a6 FA020000 		.4byte	.LVL69
 3130 06aa 99020000 		.4byte	0x299
 3131 06ae 0D       		.uleb128 0xd
 3132 06af 0A030000 		.4byte	.LVL70
 3133 06b3 141C0000 		.4byte	0x1c14
 3134 06b7 0B       		.uleb128 0xb
 3135 06b8 01       		.uleb128 0x1
 3136 06b9 50       		.byte	0x50
 3137 06ba 02       		.uleb128 0x2
 3138 06bb 08       		.byte	0x8
 3139 06bc 4B       		.byte	0x4b
 3140 06bd 0B       		.uleb128 0xb
 3141 06be 01       		.uleb128 0x1
 3142 06bf 51       		.byte	0x51
 3143 06c0 01       		.uleb128 0x1
 3144 06c1 30       		.byte	0x30
 3145 06c2 00       		.byte	0
 3146 06c3 00       		.byte	0
ARM GAS  C:\Users\8523~1\AppData\Local\Temp\ccJE8vL2.s 			page 82


 3147 06c4 08       		.uleb128 0x8
 3148 06c5 DF020000 		.4byte	.LASF32
 3149 06c9 01       		.byte	0x1
 3150 06ca A302     		.2byte	0x2a3
 3151 06cc 00000000 		.4byte	.LFB85
 3152 06d0 04010000 		.4byte	.LFE85-.LFB85
 3153 06d4 01       		.uleb128 0x1
 3154 06d5 9C       		.byte	0x9c
 3155 06d6 33080000 		.4byte	0x833
 3156 06da 0C       		.uleb128 0xc
 3157 06db 06000000 		.4byte	.LVL71
 3158 06df 2A1C0000 		.4byte	0x1c2a
 3159 06e3 0C       		.uleb128 0xc
 3160 06e4 0A000000 		.4byte	.LVL72
 3161 06e8 351C0000 		.4byte	0x1c35
 3162 06ec 0C       		.uleb128 0xc
 3163 06ed 0E000000 		.4byte	.LVL73
 3164 06f1 401C0000 		.4byte	0x1c40
 3165 06f5 0C       		.uleb128 0xc
 3166 06f6 12000000 		.4byte	.LVL74
 3167 06fa 4B1C0000 		.4byte	0x1c4b
 3168 06fe 0C       		.uleb128 0xc
 3169 06ff 16000000 		.4byte	.LVL75
 3170 0703 561C0000 		.4byte	0x1c56
 3171 0707 0C       		.uleb128 0xc
 3172 0708 1A000000 		.4byte	.LVL76
 3173 070c 611C0000 		.4byte	0x1c61
 3174 0710 0C       		.uleb128 0xc
 3175 0711 28000000 		.4byte	.LVL77
 3176 0715 42010000 		.4byte	0x142
 3177 0719 0C       		.uleb128 0xc
 3178 071a 2C000000 		.4byte	.LVL78
 3179 071e 24040000 		.4byte	0x424
 3180 0722 0A       		.uleb128 0xa
 3181 0723 3C000000 		.4byte	.LVL79
 3182 0727 141C0000 		.4byte	0x1c14
 3183 072b 3A070000 		.4byte	0x73a
 3184 072f 0B       		.uleb128 0xb
 3185 0730 01       		.uleb128 0x1
 3186 0731 50       		.byte	0x50
 3187 0732 01       		.uleb128 0x1
 3188 0733 30       		.byte	0x30
 3189 0734 0B       		.uleb128 0xb
 3190 0735 01       		.uleb128 0x1
 3191 0736 51       		.byte	0x51
 3192 0737 01       		.uleb128 0x1
 3193 0738 30       		.byte	0x30
 3194 0739 00       		.byte	0
 3195 073a 0A       		.uleb128 0xa
 3196 073b 44000000 		.4byte	.LVL80
 3197 073f 6C1C0000 		.4byte	0x1c6c
 3198 0743 54070000 		.4byte	0x754
 3199 0747 0B       		.uleb128 0xb
 3200 0748 01       		.uleb128 0x1
 3201 0749 50       		.byte	0x50
 3202 074a 02       		.uleb128 0x2
 3203 074b 08       		.byte	0x8
ARM GAS  C:\Users\8523~1\AppData\Local\Temp\ccJE8vL2.s 			page 83


 3204 074c 64       		.byte	0x64
 3205 074d 0B       		.uleb128 0xb
 3206 074e 01       		.uleb128 0x1
 3207 074f 51       		.byte	0x51
 3208 0750 02       		.uleb128 0x2
 3209 0751 08       		.byte	0x8
 3210 0752 64       		.byte	0x64
 3211 0753 00       		.byte	0
 3212 0754 0A       		.uleb128 0xa
 3213 0755 4C000000 		.4byte	.LVL81
 3214 0759 D11B0000 		.4byte	0x1bd1
 3215 075d 74070000 		.4byte	0x774
 3216 0761 0B       		.uleb128 0xb
 3217 0762 01       		.uleb128 0x1
 3218 0763 50       		.byte	0x50
 3219 0764 05       		.uleb128 0x5
 3220 0765 03       		.byte	0x3
 3221 0766 24000000 		.4byte	.LC3
 3222 076a 0B       		.uleb128 0xb
 3223 076b 01       		.uleb128 0x1
 3224 076c 51       		.byte	0x51
 3225 076d 05       		.uleb128 0x5
 3226 076e 03       		.byte	0x3
 3227 076f 1C000000 		.4byte	.LC2
 3228 0773 00       		.byte	0
 3229 0774 0C       		.uleb128 0xc
 3230 0775 50000000 		.4byte	.LVL82
 3231 0779 771C0000 		.4byte	0x1c77
 3232 077d 0C       		.uleb128 0xc
 3233 077e 54000000 		.4byte	.LVL83
 3234 0782 821C0000 		.4byte	0x1c82
 3235 0786 0A       		.uleb128 0xa
 3236 0787 62000000 		.4byte	.LVL84
 3237 078b D11B0000 		.4byte	0x1bd1
 3238 078f A6070000 		.4byte	0x7a6
 3239 0793 0B       		.uleb128 0xb
 3240 0794 01       		.uleb128 0x1
 3241 0795 50       		.byte	0x50
 3242 0796 05       		.uleb128 0x5
 3243 0797 03       		.byte	0x3
 3244 0798 38000000 		.4byte	.LC5
 3245 079c 0B       		.uleb128 0xb
 3246 079d 01       		.uleb128 0x1
 3247 079e 51       		.byte	0x51
 3248 079f 05       		.uleb128 0x5
 3249 07a0 03       		.byte	0x3
 3250 07a1 34000000 		.4byte	.LC4
 3251 07a5 00       		.byte	0
 3252 07a6 0C       		.uleb128 0xc
 3253 07a7 66000000 		.4byte	.LVL85
 3254 07ab 42010000 		.4byte	0x142
 3255 07af 0C       		.uleb128 0xc
 3256 07b0 6A000000 		.4byte	.LVL86
 3257 07b4 BF010000 		.4byte	0x1bf
 3258 07b8 0C       		.uleb128 0xc
 3259 07b9 6E000000 		.4byte	.LVL87
 3260 07bd F2010000 		.4byte	0x1f2
ARM GAS  C:\Users\8523~1\AppData\Local\Temp\ccJE8vL2.s 			page 84


 3261 07c1 0C       		.uleb128 0xc
 3262 07c2 72000000 		.4byte	.LVL88
 3263 07c6 24040000 		.4byte	0x424
 3264 07ca 0C       		.uleb128 0xc
 3265 07cb 8E000000 		.4byte	.LVL89
 3266 07cf 8E1C0000 		.4byte	0x1c8e
 3267 07d3 0A       		.uleb128 0xa
 3268 07d4 9E000000 		.4byte	.LVL90
 3269 07d8 D11B0000 		.4byte	0x1bd1
 3270 07dc F3070000 		.4byte	0x7f3
 3271 07e0 0B       		.uleb128 0xb
 3272 07e1 01       		.uleb128 0x1
 3273 07e2 50       		.byte	0x50
 3274 07e3 05       		.uleb128 0x5
 3275 07e4 03       		.byte	0x3
 3276 07e5 08000000 		.4byte	.LC1
 3277 07e9 0B       		.uleb128 0xb
 3278 07ea 01       		.uleb128 0x1
 3279 07eb 51       		.byte	0x51
 3280 07ec 05       		.uleb128 0x5
 3281 07ed 03       		.byte	0x3
 3282 07ee 00000000 		.4byte	.LC0
 3283 07f2 00       		.byte	0
 3284 07f3 0C       		.uleb128 0xc
 3285 07f4 A2000000 		.4byte	.LVL91
 3286 07f8 821C0000 		.4byte	0x1c82
 3287 07fc 0A       		.uleb128 0xa
 3288 07fd B2000000 		.4byte	.LVL92
 3289 0801 D11B0000 		.4byte	0x1bd1
 3290 0805 19080000 		.4byte	0x819
 3291 0809 0B       		.uleb128 0xb
 3292 080a 01       		.uleb128 0x1
 3293 080b 50       		.byte	0x50
 3294 080c 05       		.uleb128 0x5
 3295 080d 03       		.byte	0x3
 3296 080e 48000000 		.4byte	.LC6
 3297 0812 0B       		.uleb128 0xb
 3298 0813 01       		.uleb128 0x1
 3299 0814 51       		.byte	0x51
 3300 0815 02       		.uleb128 0x2
 3301 0816 74       		.byte	0x74
 3302 0817 00       		.sleb128 0
 3303 0818 00       		.byte	0
 3304 0819 0D       		.uleb128 0xd
 3305 081a C6000000 		.4byte	.LVL93
 3306 081e D11B0000 		.4byte	0x1bd1
 3307 0822 0B       		.uleb128 0xb
 3308 0823 01       		.uleb128 0x1
 3309 0824 50       		.byte	0x50
 3310 0825 05       		.uleb128 0x5
 3311 0826 03       		.byte	0x3
 3312 0827 58000000 		.4byte	.LC7
 3313 082b 0B       		.uleb128 0xb
 3314 082c 01       		.uleb128 0x1
 3315 082d 51       		.byte	0x51
 3316 082e 02       		.uleb128 0x2
 3317 082f 74       		.byte	0x74
ARM GAS  C:\Users\8523~1\AppData\Local\Temp\ccJE8vL2.s 			page 85


 3318 0830 00       		.sleb128 0
 3319 0831 00       		.byte	0
 3320 0832 00       		.byte	0
 3321 0833 08       		.uleb128 0x8
 3322 0834 5D000000 		.4byte	.LASF33
 3323 0838 01       		.byte	0x1
 3324 0839 3504     		.2byte	0x435
 3325 083b 00000000 		.4byte	.LFB94
 3326 083f 96000000 		.4byte	.LFE94-.LFB94
 3327 0843 01       		.uleb128 0x1
 3328 0844 9C       		.byte	0x9c
 3329 0845 1B0A0000 		.4byte	0xa1b
 3330 0849 0A       		.uleb128 0xa
 3331 084a 0A000000 		.4byte	.LVL94
 3332 084e 6C1C0000 		.4byte	0x1c6c
 3333 0852 63080000 		.4byte	0x863
 3334 0856 0B       		.uleb128 0xb
 3335 0857 01       		.uleb128 0x1
 3336 0858 50       		.byte	0x50
 3337 0859 02       		.uleb128 0x2
 3338 085a 08       		.byte	0x8
 3339 085b C8       		.byte	0xc8
 3340 085c 0B       		.uleb128 0xb
 3341 085d 01       		.uleb128 0x1
 3342 085e 51       		.byte	0x51
 3343 085f 02       		.uleb128 0x2
 3344 0860 09       		.byte	0x9
 3345 0861 FF       		.byte	0xff
 3346 0862 00       		.byte	0
 3347 0863 0A       		.uleb128 0xa
 3348 0864 12000000 		.4byte	.LVL95
 3349 0868 6C1C0000 		.4byte	0x1c6c
 3350 086c 7D080000 		.4byte	0x87d
 3351 0870 0B       		.uleb128 0xb
 3352 0871 01       		.uleb128 0x1
 3353 0872 50       		.byte	0x50
 3354 0873 02       		.uleb128 0x2
 3355 0874 08       		.byte	0x8
 3356 0875 C8       		.byte	0xc8
 3357 0876 0B       		.uleb128 0xb
 3358 0877 01       		.uleb128 0x1
 3359 0878 51       		.byte	0x51
 3360 0879 02       		.uleb128 0x2
 3361 087a 09       		.byte	0x9
 3362 087b BF       		.byte	0xbf
 3363 087c 00       		.byte	0
 3364 087d 0A       		.uleb128 0xa
 3365 087e 1A000000 		.4byte	.LVL96
 3366 0882 6C1C0000 		.4byte	0x1c6c
 3367 0886 97080000 		.4byte	0x897
 3368 088a 0B       		.uleb128 0xb
 3369 088b 01       		.uleb128 0x1
 3370 088c 50       		.byte	0x50
 3371 088d 02       		.uleb128 0x2
 3372 088e 08       		.byte	0x8
 3373 088f 64       		.byte	0x64
 3374 0890 0B       		.uleb128 0xb
ARM GAS  C:\Users\8523~1\AppData\Local\Temp\ccJE8vL2.s 			page 86


 3375 0891 01       		.uleb128 0x1
 3376 0892 51       		.byte	0x51
 3377 0893 02       		.uleb128 0x2
 3378 0894 09       		.byte	0x9
 3379 0895 98       		.byte	0x98
 3380 0896 00       		.byte	0
 3381 0897 0A       		.uleb128 0xa
 3382 0898 22000000 		.4byte	.LVL97
 3383 089c 6C1C0000 		.4byte	0x1c6c
 3384 08a0 B1080000 		.4byte	0x8b1
 3385 08a4 0B       		.uleb128 0xb
 3386 08a5 01       		.uleb128 0x1
 3387 08a6 50       		.byte	0x50
 3388 08a7 02       		.uleb128 0x2
 3389 08a8 08       		.byte	0x8
 3390 08a9 64       		.byte	0x64
 3391 08aa 0B       		.uleb128 0xb
 3392 08ab 01       		.uleb128 0x1
 3393 08ac 51       		.byte	0x51
 3394 08ad 02       		.uleb128 0x2
 3395 08ae 09       		.byte	0x9
 3396 08af BF       		.byte	0xbf
 3397 08b0 00       		.byte	0
 3398 08b1 0A       		.uleb128 0xa
 3399 08b2 2A000000 		.4byte	.LVL98
 3400 08b6 6C1C0000 		.4byte	0x1c6c
 3401 08ba CB080000 		.4byte	0x8cb
 3402 08be 0B       		.uleb128 0xb
 3403 08bf 01       		.uleb128 0x1
 3404 08c0 50       		.byte	0x50
 3405 08c1 02       		.uleb128 0x2
 3406 08c2 08       		.byte	0x8
 3407 08c3 C8       		.byte	0xc8
 3408 08c4 0B       		.uleb128 0xb
 3409 08c5 01       		.uleb128 0x1
 3410 08c6 51       		.byte	0x51
 3411 08c7 02       		.uleb128 0x2
 3412 08c8 09       		.byte	0x9
 3413 08c9 FF       		.byte	0xff
 3414 08ca 00       		.byte	0
 3415 08cb 0A       		.uleb128 0xa
 3416 08cc 32000000 		.4byte	.LVL99
 3417 08d0 6C1C0000 		.4byte	0x1c6c
 3418 08d4 E5080000 		.4byte	0x8e5
 3419 08d8 0B       		.uleb128 0xb
 3420 08d9 01       		.uleb128 0x1
 3421 08da 50       		.byte	0x50
 3422 08db 02       		.uleb128 0x2
 3423 08dc 08       		.byte	0x8
 3424 08dd C8       		.byte	0xc8
 3425 08de 0B       		.uleb128 0xb
 3426 08df 01       		.uleb128 0x1
 3427 08e0 51       		.byte	0x51
 3428 08e1 02       		.uleb128 0x2
 3429 08e2 09       		.byte	0x9
 3430 08e3 98       		.byte	0x98
 3431 08e4 00       		.byte	0
ARM GAS  C:\Users\8523~1\AppData\Local\Temp\ccJE8vL2.s 			page 87


 3432 08e5 0A       		.uleb128 0xa
 3433 08e6 3A000000 		.4byte	.LVL100
 3434 08ea 6C1C0000 		.4byte	0x1c6c
 3435 08ee FF080000 		.4byte	0x8ff
 3436 08f2 0B       		.uleb128 0xb
 3437 08f3 01       		.uleb128 0x1
 3438 08f4 50       		.byte	0x50
 3439 08f5 02       		.uleb128 0x2
 3440 08f6 08       		.byte	0x8
 3441 08f7 C8       		.byte	0xc8
 3442 08f8 0B       		.uleb128 0xb
 3443 08f9 01       		.uleb128 0x1
 3444 08fa 51       		.byte	0x51
 3445 08fb 02       		.uleb128 0x2
 3446 08fc 09       		.byte	0x9
 3447 08fd BF       		.byte	0xbf
 3448 08fe 00       		.byte	0
 3449 08ff 0A       		.uleb128 0xa
 3450 0900 42000000 		.4byte	.LVL101
 3451 0904 6C1C0000 		.4byte	0x1c6c
 3452 0908 19090000 		.4byte	0x919
 3453 090c 0B       		.uleb128 0xb
 3454 090d 01       		.uleb128 0x1
 3455 090e 50       		.byte	0x50
 3456 090f 02       		.uleb128 0x2
 3457 0910 08       		.byte	0x8
 3458 0911 64       		.byte	0x64
 3459 0912 0B       		.uleb128 0xb
 3460 0913 01       		.uleb128 0x1
 3461 0914 51       		.byte	0x51
 3462 0915 02       		.uleb128 0x2
 3463 0916 09       		.byte	0x9
 3464 0917 98       		.byte	0x98
 3465 0918 00       		.byte	0
 3466 0919 0A       		.uleb128 0xa
 3467 091a 4A000000 		.4byte	.LVL102
 3468 091e 6C1C0000 		.4byte	0x1c6c
 3469 0922 33090000 		.4byte	0x933
 3470 0926 0B       		.uleb128 0xb
 3471 0927 01       		.uleb128 0x1
 3472 0928 50       		.byte	0x50
 3473 0929 02       		.uleb128 0x2
 3474 092a 08       		.byte	0x8
 3475 092b 64       		.byte	0x64
 3476 092c 0B       		.uleb128 0xb
 3477 092d 01       		.uleb128 0x1
 3478 092e 51       		.byte	0x51
 3479 092f 02       		.uleb128 0x2
 3480 0930 09       		.byte	0x9
 3481 0931 BF       		.byte	0xbf
 3482 0932 00       		.byte	0
 3483 0933 0A       		.uleb128 0xa
 3484 0934 52000000 		.4byte	.LVL103
 3485 0938 6C1C0000 		.4byte	0x1c6c
 3486 093c 4D090000 		.4byte	0x94d
 3487 0940 0B       		.uleb128 0xb
 3488 0941 01       		.uleb128 0x1
ARM GAS  C:\Users\8523~1\AppData\Local\Temp\ccJE8vL2.s 			page 88


 3489 0942 50       		.byte	0x50
 3490 0943 02       		.uleb128 0x2
 3491 0944 08       		.byte	0x8
 3492 0945 C8       		.byte	0xc8
 3493 0946 0B       		.uleb128 0xb
 3494 0947 01       		.uleb128 0x1
 3495 0948 51       		.byte	0x51
 3496 0949 02       		.uleb128 0x2
 3497 094a 09       		.byte	0x9
 3498 094b FF       		.byte	0xff
 3499 094c 00       		.byte	0
 3500 094d 0A       		.uleb128 0xa
 3501 094e 5A000000 		.4byte	.LVL104
 3502 0952 6C1C0000 		.4byte	0x1c6c
 3503 0956 67090000 		.4byte	0x967
 3504 095a 0B       		.uleb128 0xb
 3505 095b 01       		.uleb128 0x1
 3506 095c 50       		.byte	0x50
 3507 095d 02       		.uleb128 0x2
 3508 095e 08       		.byte	0x8
 3509 095f C8       		.byte	0xc8
 3510 0960 0B       		.uleb128 0xb
 3511 0961 01       		.uleb128 0x1
 3512 0962 51       		.byte	0x51
 3513 0963 02       		.uleb128 0x2
 3514 0964 09       		.byte	0x9
 3515 0965 98       		.byte	0x98
 3516 0966 00       		.byte	0
 3517 0967 0A       		.uleb128 0xa
 3518 0968 62000000 		.4byte	.LVL105
 3519 096c 6C1C0000 		.4byte	0x1c6c
 3520 0970 81090000 		.4byte	0x981
 3521 0974 0B       		.uleb128 0xb
 3522 0975 01       		.uleb128 0x1
 3523 0976 50       		.byte	0x50
 3524 0977 02       		.uleb128 0x2
 3525 0978 08       		.byte	0x8
 3526 0979 C8       		.byte	0xc8
 3527 097a 0B       		.uleb128 0xb
 3528 097b 01       		.uleb128 0x1
 3529 097c 51       		.byte	0x51
 3530 097d 02       		.uleb128 0x2
 3531 097e 09       		.byte	0x9
 3532 097f BF       		.byte	0xbf
 3533 0980 00       		.byte	0
 3534 0981 0A       		.uleb128 0xa
 3535 0982 6A000000 		.4byte	.LVL106
 3536 0986 6C1C0000 		.4byte	0x1c6c
 3537 098a 9B090000 		.4byte	0x99b
 3538 098e 0B       		.uleb128 0xb
 3539 098f 01       		.uleb128 0x1
 3540 0990 50       		.byte	0x50
 3541 0991 02       		.uleb128 0x2
 3542 0992 08       		.byte	0x8
 3543 0993 64       		.byte	0x64
 3544 0994 0B       		.uleb128 0xb
 3545 0995 01       		.uleb128 0x1
ARM GAS  C:\Users\8523~1\AppData\Local\Temp\ccJE8vL2.s 			page 89


 3546 0996 51       		.byte	0x51
 3547 0997 02       		.uleb128 0x2
 3548 0998 09       		.byte	0x9
 3549 0999 98       		.byte	0x98
 3550 099a 00       		.byte	0
 3551 099b 0A       		.uleb128 0xa
 3552 099c 72000000 		.4byte	.LVL107
 3553 09a0 6C1C0000 		.4byte	0x1c6c
 3554 09a4 B5090000 		.4byte	0x9b5
 3555 09a8 0B       		.uleb128 0xb
 3556 09a9 01       		.uleb128 0x1
 3557 09aa 50       		.byte	0x50
 3558 09ab 02       		.uleb128 0x2
 3559 09ac 08       		.byte	0x8
 3560 09ad 64       		.byte	0x64
 3561 09ae 0B       		.uleb128 0xb
 3562 09af 01       		.uleb128 0x1
 3563 09b0 51       		.byte	0x51
 3564 09b1 02       		.uleb128 0x2
 3565 09b2 09       		.byte	0x9
 3566 09b3 BF       		.byte	0xbf
 3567 09b4 00       		.byte	0
 3568 09b5 0A       		.uleb128 0xa
 3569 09b6 7A000000 		.4byte	.LVL108
 3570 09ba 6C1C0000 		.4byte	0x1c6c
 3571 09be CF090000 		.4byte	0x9cf
 3572 09c2 0B       		.uleb128 0xb
 3573 09c3 01       		.uleb128 0x1
 3574 09c4 50       		.byte	0x50
 3575 09c5 02       		.uleb128 0x2
 3576 09c6 08       		.byte	0x8
 3577 09c7 C8       		.byte	0xc8
 3578 09c8 0B       		.uleb128 0xb
 3579 09c9 01       		.uleb128 0x1
 3580 09ca 51       		.byte	0x51
 3581 09cb 02       		.uleb128 0x2
 3582 09cc 09       		.byte	0x9
 3583 09cd FF       		.byte	0xff
 3584 09ce 00       		.byte	0
 3585 09cf 0A       		.uleb128 0xa
 3586 09d0 82000000 		.4byte	.LVL109
 3587 09d4 6C1C0000 		.4byte	0x1c6c
 3588 09d8 E9090000 		.4byte	0x9e9
 3589 09dc 0B       		.uleb128 0xb
 3590 09dd 01       		.uleb128 0x1
 3591 09de 50       		.byte	0x50
 3592 09df 02       		.uleb128 0x2
 3593 09e0 08       		.byte	0x8
 3594 09e1 C8       		.byte	0xc8
 3595 09e2 0B       		.uleb128 0xb
 3596 09e3 01       		.uleb128 0x1
 3597 09e4 51       		.byte	0x51
 3598 09e5 02       		.uleb128 0x2
 3599 09e6 09       		.byte	0x9
 3600 09e7 BF       		.byte	0xbf
 3601 09e8 00       		.byte	0
 3602 09e9 0A       		.uleb128 0xa
ARM GAS  C:\Users\8523~1\AppData\Local\Temp\ccJE8vL2.s 			page 90


 3603 09ea 8C000000 		.4byte	.LVL110
 3604 09ee 6C1C0000 		.4byte	0x1c6c
 3605 09f2 040A0000 		.4byte	0xa04
 3606 09f6 0B       		.uleb128 0xb
 3607 09f7 01       		.uleb128 0x1
 3608 09f8 50       		.byte	0x50
 3609 09f9 03       		.uleb128 0x3
 3610 09fa 0A       		.byte	0xa
 3611 09fb 9001     		.2byte	0x190
 3612 09fd 0B       		.uleb128 0xb
 3613 09fe 01       		.uleb128 0x1
 3614 09ff 51       		.byte	0x51
 3615 0a00 02       		.uleb128 0x2
 3616 0a01 09       		.byte	0x9
 3617 0a02 98       		.byte	0x98
 3618 0a03 00       		.byte	0
 3619 0a04 0D       		.uleb128 0xd
 3620 0a05 94000000 		.4byte	.LVL111
 3621 0a09 6C1C0000 		.4byte	0x1c6c
 3622 0a0d 0B       		.uleb128 0xb
 3623 0a0e 01       		.uleb128 0x1
 3624 0a0f 50       		.byte	0x50
 3625 0a10 02       		.uleb128 0x2
 3626 0a11 08       		.byte	0x8
 3627 0a12 C8       		.byte	0xc8
 3628 0a13 0B       		.uleb128 0xb
 3629 0a14 01       		.uleb128 0x1
 3630 0a15 51       		.byte	0x51
 3631 0a16 02       		.uleb128 0x2
 3632 0a17 09       		.byte	0x9
 3633 0a18 BF       		.byte	0xbf
 3634 0a19 00       		.byte	0
 3635 0a1a 00       		.byte	0
 3636 0a1b 08       		.uleb128 0x8
 3637 0a1c 82020000 		.4byte	.LASF34
 3638 0a20 01       		.byte	0x1
 3639 0a21 4E04     		.2byte	0x44e
 3640 0a23 00000000 		.4byte	.LFB95
 3641 0a27 48050000 		.4byte	.LFE95-.LFB95
 3642 0a2b 01       		.uleb128 0x1
 3643 0a2c 9C       		.byte	0x9c
 3644 0a2d CB1A0000 		.4byte	0x1acb
 3645 0a31 0A       		.uleb128 0xa
 3646 0a32 0A000000 		.4byte	.LVL112
 3647 0a36 6C1C0000 		.4byte	0x1c6c
 3648 0a3a 4B0A0000 		.4byte	0xa4b
 3649 0a3e 0B       		.uleb128 0xb
 3650 0a3f 01       		.uleb128 0x1
 3651 0a40 50       		.byte	0x50
 3652 0a41 02       		.uleb128 0x2
 3653 0a42 08       		.byte	0x8
 3654 0a43 FA       		.byte	0xfa
 3655 0a44 0B       		.uleb128 0xb
 3656 0a45 01       		.uleb128 0x1
 3657 0a46 51       		.byte	0x51
 3658 0a47 02       		.uleb128 0x2
 3659 0a48 08       		.byte	0x8
ARM GAS  C:\Users\8523~1\AppData\Local\Temp\ccJE8vL2.s 			page 91


 3660 0a49 48       		.byte	0x48
 3661 0a4a 00       		.byte	0
 3662 0a4b 0A       		.uleb128 0xa
 3663 0a4c 12000000 		.4byte	.LVL113
 3664 0a50 6C1C0000 		.4byte	0x1c6c
 3665 0a54 650A0000 		.4byte	0xa65
 3666 0a58 0B       		.uleb128 0xb
 3667 0a59 01       		.uleb128 0x1
 3668 0a5a 50       		.byte	0x50
 3669 0a5b 02       		.uleb128 0x2
 3670 0a5c 08       		.byte	0x8
 3671 0a5d FA       		.byte	0xfa
 3672 0a5e 0B       		.uleb128 0xb
 3673 0a5f 01       		.uleb128 0x1
 3674 0a60 51       		.byte	0x51
 3675 0a61 02       		.uleb128 0x2
 3676 0a62 09       		.byte	0x9
 3677 0a63 8F       		.byte	0x8f
 3678 0a64 00       		.byte	0
 3679 0a65 0A       		.uleb128 0xa
 3680 0a66 1A000000 		.4byte	.LVL114
 3681 0a6a 6C1C0000 		.4byte	0x1c6c
 3682 0a6e 7F0A0000 		.4byte	0xa7f
 3683 0a72 0B       		.uleb128 0xb
 3684 0a73 01       		.uleb128 0x1
 3685 0a74 50       		.byte	0x50
 3686 0a75 02       		.uleb128 0x2
 3687 0a76 08       		.byte	0x8
 3688 0a77 FA       		.byte	0xfa
 3689 0a78 0B       		.uleb128 0xb
 3690 0a79 01       		.uleb128 0x1
 3691 0a7a 51       		.byte	0x51
 3692 0a7b 02       		.uleb128 0x2
 3693 0a7c 09       		.byte	0x9
 3694 0a7d E3       		.byte	0xe3
 3695 0a7e 00       		.byte	0
 3696 0a7f 0A       		.uleb128 0xa
 3697 0a80 22000000 		.4byte	.LVL115
 3698 0a84 6C1C0000 		.4byte	0x1c6c
 3699 0a88 990A0000 		.4byte	0xa99
 3700 0a8c 0B       		.uleb128 0xb
 3701 0a8d 01       		.uleb128 0x1
 3702 0a8e 50       		.byte	0x50
 3703 0a8f 02       		.uleb128 0x2
 3704 0a90 08       		.byte	0x8
 3705 0a91 FA       		.byte	0xfa
 3706 0a92 0B       		.uleb128 0xb
 3707 0a93 01       		.uleb128 0x1
 3708 0a94 51       		.byte	0x51
 3709 0a95 02       		.uleb128 0x2
 3710 0a96 09       		.byte	0x9
 3711 0a97 BF       		.byte	0xbf
 3712 0a98 00       		.byte	0
 3713 0a99 0A       		.uleb128 0xa
 3714 0a9a 2A000000 		.4byte	.LVL116
 3715 0a9e 6C1C0000 		.4byte	0x1c6c
 3716 0aa2 B30A0000 		.4byte	0xab3
ARM GAS  C:\Users\8523~1\AppData\Local\Temp\ccJE8vL2.s 			page 92


 3717 0aa6 0B       		.uleb128 0xb
 3718 0aa7 01       		.uleb128 0x1
 3719 0aa8 50       		.byte	0x50
 3720 0aa9 02       		.uleb128 0x2
 3721 0aaa 08       		.byte	0x8
 3722 0aab FA       		.byte	0xfa
 3723 0aac 0B       		.uleb128 0xb
 3724 0aad 01       		.uleb128 0x1
 3725 0aae 51       		.byte	0x51
 3726 0aaf 02       		.uleb128 0x2
 3727 0ab0 08       		.byte	0x8
 3728 0ab1 4C       		.byte	0x4c
 3729 0ab2 00       		.byte	0
 3730 0ab3 0A       		.uleb128 0xa
 3731 0ab4 32000000 		.4byte	.LVL117
 3732 0ab8 6C1C0000 		.4byte	0x1c6c
 3733 0abc CD0A0000 		.4byte	0xacd
 3734 0ac0 0B       		.uleb128 0xb
 3735 0ac1 01       		.uleb128 0x1
 3736 0ac2 50       		.byte	0x50
 3737 0ac3 02       		.uleb128 0x2
 3738 0ac4 08       		.byte	0x8
 3739 0ac5 FA       		.byte	0xfa
 3740 0ac6 0B       		.uleb128 0xb
 3741 0ac7 01       		.uleb128 0x1
 3742 0ac8 51       		.byte	0x51
 3743 0ac9 02       		.uleb128 0x2
 3744 0aca 08       		.byte	0x8
 3745 0acb 48       		.byte	0x48
 3746 0acc 00       		.byte	0
 3747 0acd 0A       		.uleb128 0xa
 3748 0ace 3A000000 		.4byte	.LVL118
 3749 0ad2 6C1C0000 		.4byte	0x1c6c
 3750 0ad6 E70A0000 		.4byte	0xae7
 3751 0ada 0B       		.uleb128 0xb
 3752 0adb 01       		.uleb128 0x1
 3753 0adc 50       		.byte	0x50
 3754 0add 02       		.uleb128 0x2
 3755 0ade 08       		.byte	0x8
 3756 0adf FA       		.byte	0xfa
 3757 0ae0 0B       		.uleb128 0xb
 3758 0ae1 01       		.uleb128 0x1
 3759 0ae2 51       		.byte	0x51
 3760 0ae3 02       		.uleb128 0x2
 3761 0ae4 08       		.byte	0x8
 3762 0ae5 4C       		.byte	0x4c
 3763 0ae6 00       		.byte	0
 3764 0ae7 0A       		.uleb128 0xa
 3765 0ae8 42000000 		.4byte	.LVL119
 3766 0aec 6C1C0000 		.4byte	0x1c6c
 3767 0af0 010B0000 		.4byte	0xb01
 3768 0af4 0B       		.uleb128 0xb
 3769 0af5 01       		.uleb128 0x1
 3770 0af6 50       		.byte	0x50
 3771 0af7 02       		.uleb128 0x2
 3772 0af8 08       		.byte	0x8
 3773 0af9 FA       		.byte	0xfa
ARM GAS  C:\Users\8523~1\AppData\Local\Temp\ccJE8vL2.s 			page 93


 3774 0afa 0B       		.uleb128 0xb
 3775 0afb 01       		.uleb128 0x1
 3776 0afc 51       		.byte	0x51
 3777 0afd 02       		.uleb128 0x2
 3778 0afe 09       		.byte	0x9
 3779 0aff E3       		.byte	0xe3
 3780 0b00 00       		.byte	0
 3781 0b01 0A       		.uleb128 0xa
 3782 0b02 4A000000 		.4byte	.LVL120
 3783 0b06 6C1C0000 		.4byte	0x1c6c
 3784 0b0a 1B0B0000 		.4byte	0xb1b
 3785 0b0e 0B       		.uleb128 0xb
 3786 0b0f 01       		.uleb128 0x1
 3787 0b10 50       		.byte	0x50
 3788 0b11 02       		.uleb128 0x2
 3789 0b12 08       		.byte	0x8
 3790 0b13 FA       		.byte	0xfa
 3791 0b14 0B       		.uleb128 0xb
 3792 0b15 01       		.uleb128 0x1
 3793 0b16 51       		.byte	0x51
 3794 0b17 02       		.uleb128 0x2
 3795 0b18 08       		.byte	0x8
 3796 0b19 60       		.byte	0x60
 3797 0b1a 00       		.byte	0
 3798 0b1b 0A       		.uleb128 0xa
 3799 0b1c 52000000 		.4byte	.LVL121
 3800 0b20 6C1C0000 		.4byte	0x1c6c
 3801 0b24 350B0000 		.4byte	0xb35
 3802 0b28 0B       		.uleb128 0xb
 3803 0b29 01       		.uleb128 0x1
 3804 0b2a 50       		.byte	0x50
 3805 0b2b 02       		.uleb128 0x2
 3806 0b2c 08       		.byte	0x8
 3807 0b2d FA       		.byte	0xfa
 3808 0b2e 0B       		.uleb128 0xb
 3809 0b2f 01       		.uleb128 0x1
 3810 0b30 51       		.byte	0x51
 3811 0b31 02       		.uleb128 0x2
 3812 0b32 09       		.byte	0x9
 3813 0b33 E3       		.byte	0xe3
 3814 0b34 00       		.byte	0
 3815 0b35 0A       		.uleb128 0xa
 3816 0b36 5A000000 		.4byte	.LVL122
 3817 0b3a 6C1C0000 		.4byte	0x1c6c
 3818 0b3e 4F0B0000 		.4byte	0xb4f
 3819 0b42 0B       		.uleb128 0xb
 3820 0b43 01       		.uleb128 0x1
 3821 0b44 50       		.byte	0x50
 3822 0b45 02       		.uleb128 0x2
 3823 0b46 08       		.byte	0x8
 3824 0b47 FA       		.byte	0xfa
 3825 0b48 0B       		.uleb128 0xb
 3826 0b49 01       		.uleb128 0x1
 3827 0b4a 51       		.byte	0x51
 3828 0b4b 02       		.uleb128 0x2
 3829 0b4c 09       		.byte	0x9
 3830 0b4d 98       		.byte	0x98
ARM GAS  C:\Users\8523~1\AppData\Local\Temp\ccJE8vL2.s 			page 94


 3831 0b4e 00       		.byte	0
 3832 0b4f 0A       		.uleb128 0xa
 3833 0b50 62000000 		.4byte	.LVL123
 3834 0b54 6C1C0000 		.4byte	0x1c6c
 3835 0b58 690B0000 		.4byte	0xb69
 3836 0b5c 0B       		.uleb128 0xb
 3837 0b5d 01       		.uleb128 0x1
 3838 0b5e 50       		.byte	0x50
 3839 0b5f 02       		.uleb128 0x2
 3840 0b60 08       		.byte	0x8
 3841 0b61 FA       		.byte	0xfa
 3842 0b62 0B       		.uleb128 0xb
 3843 0b63 01       		.uleb128 0x1
 3844 0b64 51       		.byte	0x51
 3845 0b65 02       		.uleb128 0x2
 3846 0b66 08       		.byte	0x8
 3847 0b67 72       		.byte	0x72
 3848 0b68 00       		.byte	0
 3849 0b69 0A       		.uleb128 0xa
 3850 0b6a 6A000000 		.4byte	.LVL124
 3851 0b6e 6C1C0000 		.4byte	0x1c6c
 3852 0b72 830B0000 		.4byte	0xb83
 3853 0b76 0B       		.uleb128 0xb
 3854 0b77 01       		.uleb128 0x1
 3855 0b78 50       		.byte	0x50
 3856 0b79 02       		.uleb128 0x2
 3857 0b7a 08       		.byte	0x8
 3858 0b7b FA       		.byte	0xfa
 3859 0b7c 0B       		.uleb128 0xb
 3860 0b7d 01       		.uleb128 0x1
 3861 0b7e 51       		.byte	0x51
 3862 0b7f 02       		.uleb128 0x2
 3863 0b80 08       		.byte	0x8
 3864 0b81 55       		.byte	0x55
 3865 0b82 00       		.byte	0
 3866 0b83 0A       		.uleb128 0xa
 3867 0b84 72000000 		.4byte	.LVL125
 3868 0b88 6C1C0000 		.4byte	0x1c6c
 3869 0b8c 9D0B0000 		.4byte	0xb9d
 3870 0b90 0B       		.uleb128 0xb
 3871 0b91 01       		.uleb128 0x1
 3872 0b92 50       		.byte	0x50
 3873 0b93 02       		.uleb128 0x2
 3874 0b94 08       		.byte	0x8
 3875 0b95 96       		.byte	0x96
 3876 0b96 0B       		.uleb128 0xb
 3877 0b97 01       		.uleb128 0x1
 3878 0b98 51       		.byte	0x51
 3879 0b99 02       		.uleb128 0x2
 3880 0b9a 09       		.byte	0x9
 3881 0b9b AA       		.byte	0xaa
 3882 0b9c 00       		.byte	0
 3883 0b9d 0A       		.uleb128 0xa
 3884 0b9e 7A000000 		.4byte	.LVL126
 3885 0ba2 6C1C0000 		.4byte	0x1c6c
 3886 0ba6 B70B0000 		.4byte	0xbb7
 3887 0baa 0B       		.uleb128 0xb
ARM GAS  C:\Users\8523~1\AppData\Local\Temp\ccJE8vL2.s 			page 95


 3888 0bab 01       		.uleb128 0x1
 3889 0bac 50       		.byte	0x50
 3890 0bad 02       		.uleb128 0x2
 3891 0bae 08       		.byte	0x8
 3892 0baf 64       		.byte	0x64
 3893 0bb0 0B       		.uleb128 0xb
 3894 0bb1 01       		.uleb128 0x1
 3895 0bb2 51       		.byte	0x51
 3896 0bb3 02       		.uleb128 0x2
 3897 0bb4 08       		.byte	0x8
 3898 0bb5 60       		.byte	0x60
 3899 0bb6 00       		.byte	0
 3900 0bb7 0A       		.uleb128 0xa
 3901 0bb8 82000000 		.4byte	.LVL127
 3902 0bbc 6C1C0000 		.4byte	0x1c6c
 3903 0bc0 D10B0000 		.4byte	0xbd1
 3904 0bc4 0B       		.uleb128 0xb
 3905 0bc5 01       		.uleb128 0x1
 3906 0bc6 50       		.byte	0x50
 3907 0bc7 02       		.uleb128 0x2
 3908 0bc8 08       		.byte	0x8
 3909 0bc9 FA       		.byte	0xfa
 3910 0bca 0B       		.uleb128 0xb
 3911 0bcb 01       		.uleb128 0x1
 3912 0bcc 51       		.byte	0x51
 3913 0bcd 02       		.uleb128 0x2
 3914 0bce 08       		.byte	0x8
 3915 0bcf 72       		.byte	0x72
 3916 0bd0 00       		.byte	0
 3917 0bd1 0A       		.uleb128 0xa
 3918 0bd2 8A000000 		.4byte	.LVL128
 3919 0bd6 6C1C0000 		.4byte	0x1c6c
 3920 0bda EB0B0000 		.4byte	0xbeb
 3921 0bde 0B       		.uleb128 0xb
 3922 0bdf 01       		.uleb128 0x1
 3923 0be0 50       		.byte	0x50
 3924 0be1 02       		.uleb128 0x2
 3925 0be2 08       		.byte	0x8
 3926 0be3 FA       		.byte	0xfa
 3927 0be4 0B       		.uleb128 0xb
 3928 0be5 01       		.uleb128 0x1
 3929 0be6 51       		.byte	0x51
 3930 0be7 02       		.uleb128 0x2
 3931 0be8 09       		.byte	0x9
 3932 0be9 AA       		.byte	0xaa
 3933 0bea 00       		.byte	0
 3934 0beb 0A       		.uleb128 0xa
 3935 0bec 92000000 		.4byte	.LVL129
 3936 0bf0 6C1C0000 		.4byte	0x1c6c
 3937 0bf4 050C0000 		.4byte	0xc05
 3938 0bf8 0B       		.uleb128 0xb
 3939 0bf9 01       		.uleb128 0x1
 3940 0bfa 50       		.byte	0x50
 3941 0bfb 02       		.uleb128 0x2
 3942 0bfc 08       		.byte	0x8
 3943 0bfd FA       		.byte	0xfa
 3944 0bfe 0B       		.uleb128 0xb
ARM GAS  C:\Users\8523~1\AppData\Local\Temp\ccJE8vL2.s 			page 96


 3945 0bff 01       		.uleb128 0x1
 3946 0c00 51       		.byte	0x51
 3947 0c01 02       		.uleb128 0x2
 3948 0c02 09       		.byte	0x9
 3949 0c03 E3       		.byte	0xe3
 3950 0c04 00       		.byte	0
 3951 0c05 0A       		.uleb128 0xa
 3952 0c06 9A000000 		.4byte	.LVL130
 3953 0c0a 6C1C0000 		.4byte	0x1c6c
 3954 0c0e 1F0C0000 		.4byte	0xc1f
 3955 0c12 0B       		.uleb128 0xb
 3956 0c13 01       		.uleb128 0x1
 3957 0c14 50       		.byte	0x50
 3958 0c15 02       		.uleb128 0x2
 3959 0c16 08       		.byte	0x8
 3960 0c17 FA       		.byte	0xfa
 3961 0c18 0B       		.uleb128 0xb
 3962 0c19 01       		.uleb128 0x1
 3963 0c1a 51       		.byte	0x51
 3964 0c1b 02       		.uleb128 0x2
 3965 0c1c 09       		.byte	0x9
 3966 0c1d 8F       		.byte	0x8f
 3967 0c1e 00       		.byte	0
 3968 0c1f 0A       		.uleb128 0xa
 3969 0c20 A2000000 		.4byte	.LVL131
 3970 0c24 6C1C0000 		.4byte	0x1c6c
 3971 0c28 380C0000 		.4byte	0xc38
 3972 0c2c 0B       		.uleb128 0xb
 3973 0c2d 01       		.uleb128 0x1
 3974 0c2e 50       		.byte	0x50
 3975 0c2f 01       		.uleb128 0x1
 3976 0c30 3A       		.byte	0x3a
 3977 0c31 0B       		.uleb128 0xb
 3978 0c32 01       		.uleb128 0x1
 3979 0c33 51       		.byte	0x51
 3980 0c34 02       		.uleb128 0x2
 3981 0c35 09       		.byte	0x9
 3982 0c36 8F       		.byte	0x8f
 3983 0c37 00       		.byte	0
 3984 0c38 0A       		.uleb128 0xa
 3985 0c39 AA000000 		.4byte	.LVL132
 3986 0c3d 6C1C0000 		.4byte	0x1c6c
 3987 0c41 510C0000 		.4byte	0xc51
 3988 0c45 0B       		.uleb128 0xb
 3989 0c46 01       		.uleb128 0x1
 3990 0c47 50       		.byte	0x50
 3991 0c48 01       		.uleb128 0x1
 3992 0c49 3A       		.byte	0x3a
 3993 0c4a 0B       		.uleb128 0xb
 3994 0c4b 01       		.uleb128 0x1
 3995 0c4c 51       		.byte	0x51
 3996 0c4d 02       		.uleb128 0x2
 3997 0c4e 08       		.byte	0x8
 3998 0c4f 6B       		.byte	0x6b
 3999 0c50 00       		.byte	0
 4000 0c51 0A       		.uleb128 0xa
 4001 0c52 B2000000 		.4byte	.LVL133
ARM GAS  C:\Users\8523~1\AppData\Local\Temp\ccJE8vL2.s 			page 97


 4002 0c56 6C1C0000 		.4byte	0x1c6c
 4003 0c5a 6A0C0000 		.4byte	0xc6a
 4004 0c5e 0B       		.uleb128 0xb
 4005 0c5f 01       		.uleb128 0x1
 4006 0c60 50       		.byte	0x50
 4007 0c61 01       		.uleb128 0x1
 4008 0c62 3A       		.byte	0x3a
 4009 0c63 0B       		.uleb128 0xb
 4010 0c64 01       		.uleb128 0x1
 4011 0c65 51       		.byte	0x51
 4012 0c66 02       		.uleb128 0x2
 4013 0c67 08       		.byte	0x8
 4014 0c68 55       		.byte	0x55
 4015 0c69 00       		.byte	0
 4016 0c6a 0A       		.uleb128 0xa
 4017 0c6b BA000000 		.4byte	.LVL134
 4018 0c6f 6C1C0000 		.4byte	0x1c6c
 4019 0c73 830C0000 		.4byte	0xc83
 4020 0c77 0B       		.uleb128 0xb
 4021 0c78 01       		.uleb128 0x1
 4022 0c79 50       		.byte	0x50
 4023 0c7a 01       		.uleb128 0x1
 4024 0c7b 3A       		.byte	0x3a
 4025 0c7c 0B       		.uleb128 0xb
 4026 0c7d 01       		.uleb128 0x1
 4027 0c7e 51       		.byte	0x51
 4028 0c7f 02       		.uleb128 0x2
 4029 0c80 08       		.byte	0x8
 4030 0c81 48       		.byte	0x48
 4031 0c82 00       		.byte	0
 4032 0c83 0A       		.uleb128 0xa
 4033 0c84 C2000000 		.4byte	.LVL135
 4034 0c88 6C1C0000 		.4byte	0x1c6c
 4035 0c8c 9C0C0000 		.4byte	0xc9c
 4036 0c90 0B       		.uleb128 0xb
 4037 0c91 01       		.uleb128 0x1
 4038 0c92 50       		.byte	0x50
 4039 0c93 01       		.uleb128 0x1
 4040 0c94 3A       		.byte	0x3a
 4041 0c95 0B       		.uleb128 0xb
 4042 0c96 01       		.uleb128 0x1
 4043 0c97 51       		.byte	0x51
 4044 0c98 02       		.uleb128 0x2
 4045 0c99 09       		.byte	0x9
 4046 0c9a 8F       		.byte	0x8f
 4047 0c9b 00       		.byte	0
 4048 0c9c 0A       		.uleb128 0xa
 4049 0c9d CA000000 		.4byte	.LVL136
 4050 0ca1 6C1C0000 		.4byte	0x1c6c
 4051 0ca5 B50C0000 		.4byte	0xcb5
 4052 0ca9 0B       		.uleb128 0xb
 4053 0caa 01       		.uleb128 0x1
 4054 0cab 50       		.byte	0x50
 4055 0cac 01       		.uleb128 0x1
 4056 0cad 3A       		.byte	0x3a
 4057 0cae 0B       		.uleb128 0xb
 4058 0caf 01       		.uleb128 0x1
ARM GAS  C:\Users\8523~1\AppData\Local\Temp\ccJE8vL2.s 			page 98


 4059 0cb0 51       		.byte	0x51
 4060 0cb1 02       		.uleb128 0x2
 4061 0cb2 08       		.byte	0x8
 4062 0cb3 6B       		.byte	0x6b
 4063 0cb4 00       		.byte	0
 4064 0cb5 0A       		.uleb128 0xa
 4065 0cb6 D2000000 		.4byte	.LVL137
 4066 0cba 6C1C0000 		.4byte	0x1c6c
 4067 0cbe CE0C0000 		.4byte	0xcce
 4068 0cc2 0B       		.uleb128 0xb
 4069 0cc3 01       		.uleb128 0x1
 4070 0cc4 50       		.byte	0x50
 4071 0cc5 01       		.uleb128 0x1
 4072 0cc6 3A       		.byte	0x3a
 4073 0cc7 0B       		.uleb128 0xb
 4074 0cc8 01       		.uleb128 0x1
 4075 0cc9 51       		.byte	0x51
 4076 0cca 02       		.uleb128 0x2
 4077 0ccb 08       		.byte	0x8
 4078 0ccc 55       		.byte	0x55
 4079 0ccd 00       		.byte	0
 4080 0cce 0A       		.uleb128 0xa
 4081 0ccf DA000000 		.4byte	.LVL138
 4082 0cd3 6C1C0000 		.4byte	0x1c6c
 4083 0cd7 E70C0000 		.4byte	0xce7
 4084 0cdb 0B       		.uleb128 0xb
 4085 0cdc 01       		.uleb128 0x1
 4086 0cdd 50       		.byte	0x50
 4087 0cde 01       		.uleb128 0x1
 4088 0cdf 3A       		.byte	0x3a
 4089 0ce0 0B       		.uleb128 0xb
 4090 0ce1 01       		.uleb128 0x1
 4091 0ce2 51       		.byte	0x51
 4092 0ce3 02       		.uleb128 0x2
 4093 0ce4 08       		.byte	0x8
 4094 0ce5 48       		.byte	0x48
 4095 0ce6 00       		.byte	0
 4096 0ce7 0A       		.uleb128 0xa
 4097 0ce8 E2000000 		.4byte	.LVL139
 4098 0cec 6C1C0000 		.4byte	0x1c6c
 4099 0cf0 000D0000 		.4byte	0xd00
 4100 0cf4 0B       		.uleb128 0xb
 4101 0cf5 01       		.uleb128 0x1
 4102 0cf6 50       		.byte	0x50
 4103 0cf7 01       		.uleb128 0x1
 4104 0cf8 3A       		.byte	0x3a
 4105 0cf9 0B       		.uleb128 0xb
 4106 0cfa 01       		.uleb128 0x1
 4107 0cfb 51       		.byte	0x51
 4108 0cfc 02       		.uleb128 0x2
 4109 0cfd 09       		.byte	0x9
 4110 0cfe 8F       		.byte	0x8f
 4111 0cff 00       		.byte	0
 4112 0d00 0A       		.uleb128 0xa
 4113 0d01 EA000000 		.4byte	.LVL140
 4114 0d05 6C1C0000 		.4byte	0x1c6c
 4115 0d09 190D0000 		.4byte	0xd19
ARM GAS  C:\Users\8523~1\AppData\Local\Temp\ccJE8vL2.s 			page 99


 4116 0d0d 0B       		.uleb128 0xb
 4117 0d0e 01       		.uleb128 0x1
 4118 0d0f 50       		.byte	0x50
 4119 0d10 01       		.uleb128 0x1
 4120 0d11 3A       		.byte	0x3a
 4121 0d12 0B       		.uleb128 0xb
 4122 0d13 01       		.uleb128 0x1
 4123 0d14 51       		.byte	0x51
 4124 0d15 02       		.uleb128 0x2
 4125 0d16 08       		.byte	0x8
 4126 0d17 6B       		.byte	0x6b
 4127 0d18 00       		.byte	0
 4128 0d19 0A       		.uleb128 0xa
 4129 0d1a F2000000 		.4byte	.LVL141
 4130 0d1e 6C1C0000 		.4byte	0x1c6c
 4131 0d22 320D0000 		.4byte	0xd32
 4132 0d26 0B       		.uleb128 0xb
 4133 0d27 01       		.uleb128 0x1
 4134 0d28 50       		.byte	0x50
 4135 0d29 01       		.uleb128 0x1
 4136 0d2a 3A       		.byte	0x3a
 4137 0d2b 0B       		.uleb128 0xb
 4138 0d2c 01       		.uleb128 0x1
 4139 0d2d 51       		.byte	0x51
 4140 0d2e 02       		.uleb128 0x2
 4141 0d2f 08       		.byte	0x8
 4142 0d30 55       		.byte	0x55
 4143 0d31 00       		.byte	0
 4144 0d32 0A       		.uleb128 0xa
 4145 0d33 FA000000 		.4byte	.LVL142
 4146 0d37 6C1C0000 		.4byte	0x1c6c
 4147 0d3b 4B0D0000 		.4byte	0xd4b
 4148 0d3f 0B       		.uleb128 0xb
 4149 0d40 01       		.uleb128 0x1
 4150 0d41 50       		.byte	0x50
 4151 0d42 01       		.uleb128 0x1
 4152 0d43 3A       		.byte	0x3a
 4153 0d44 0B       		.uleb128 0xb
 4154 0d45 01       		.uleb128 0x1
 4155 0d46 51       		.byte	0x51
 4156 0d47 02       		.uleb128 0x2
 4157 0d48 08       		.byte	0x8
 4158 0d49 48       		.byte	0x48
 4159 0d4a 00       		.byte	0
 4160 0d4b 0A       		.uleb128 0xa
 4161 0d4c 02010000 		.4byte	.LVL143
 4162 0d50 6C1C0000 		.4byte	0x1c6c
 4163 0d54 640D0000 		.4byte	0xd64
 4164 0d58 0B       		.uleb128 0xb
 4165 0d59 01       		.uleb128 0x1
 4166 0d5a 50       		.byte	0x50
 4167 0d5b 01       		.uleb128 0x1
 4168 0d5c 3A       		.byte	0x3a
 4169 0d5d 0B       		.uleb128 0xb
 4170 0d5e 01       		.uleb128 0x1
 4171 0d5f 51       		.byte	0x51
 4172 0d60 02       		.uleb128 0x2
ARM GAS  C:\Users\8523~1\AppData\Local\Temp\ccJE8vL2.s 			page 100


 4173 0d61 09       		.byte	0x9
 4174 0d62 8F       		.byte	0x8f
 4175 0d63 00       		.byte	0
 4176 0d64 0A       		.uleb128 0xa
 4177 0d65 0A010000 		.4byte	.LVL144
 4178 0d69 6C1C0000 		.4byte	0x1c6c
 4179 0d6d 7D0D0000 		.4byte	0xd7d
 4180 0d71 0B       		.uleb128 0xb
 4181 0d72 01       		.uleb128 0x1
 4182 0d73 50       		.byte	0x50
 4183 0d74 01       		.uleb128 0x1
 4184 0d75 3A       		.byte	0x3a
 4185 0d76 0B       		.uleb128 0xb
 4186 0d77 01       		.uleb128 0x1
 4187 0d78 51       		.byte	0x51
 4188 0d79 02       		.uleb128 0x2
 4189 0d7a 08       		.byte	0x8
 4190 0d7b 6B       		.byte	0x6b
 4191 0d7c 00       		.byte	0
 4192 0d7d 0A       		.uleb128 0xa
 4193 0d7e 12010000 		.4byte	.LVL145
 4194 0d82 6C1C0000 		.4byte	0x1c6c
 4195 0d86 960D0000 		.4byte	0xd96
 4196 0d8a 0B       		.uleb128 0xb
 4197 0d8b 01       		.uleb128 0x1
 4198 0d8c 50       		.byte	0x50
 4199 0d8d 01       		.uleb128 0x1
 4200 0d8e 3A       		.byte	0x3a
 4201 0d8f 0B       		.uleb128 0xb
 4202 0d90 01       		.uleb128 0x1
 4203 0d91 51       		.byte	0x51
 4204 0d92 02       		.uleb128 0x2
 4205 0d93 08       		.byte	0x8
 4206 0d94 55       		.byte	0x55
 4207 0d95 00       		.byte	0
 4208 0d96 0A       		.uleb128 0xa
 4209 0d97 18010000 		.4byte	.LVL146
 4210 0d9b 081C0000 		.4byte	0x1c08
 4211 0d9f AA0D0000 		.4byte	0xdaa
 4212 0da3 0B       		.uleb128 0xb
 4213 0da4 01       		.uleb128 0x1
 4214 0da5 50       		.byte	0x50
 4215 0da6 02       		.uleb128 0x2
 4216 0da7 08       		.byte	0x8
 4217 0da8 64       		.byte	0x64
 4218 0da9 00       		.byte	0
 4219 0daa 0A       		.uleb128 0xa
 4220 0dab 20010000 		.4byte	.LVL147
 4221 0daf 6C1C0000 		.4byte	0x1c6c
 4222 0db3 C30D0000 		.4byte	0xdc3
 4223 0db7 0B       		.uleb128 0xb
 4224 0db8 01       		.uleb128 0x1
 4225 0db9 50       		.byte	0x50
 4226 0dba 01       		.uleb128 0x1
 4227 0dbb 3A       		.byte	0x3a
 4228 0dbc 0B       		.uleb128 0xb
 4229 0dbd 01       		.uleb128 0x1
ARM GAS  C:\Users\8523~1\AppData\Local\Temp\ccJE8vL2.s 			page 101


 4230 0dbe 51       		.byte	0x51
 4231 0dbf 02       		.uleb128 0x2
 4232 0dc0 09       		.byte	0x9
 4233 0dc1 8F       		.byte	0x8f
 4234 0dc2 00       		.byte	0
 4235 0dc3 0A       		.uleb128 0xa
 4236 0dc4 28010000 		.4byte	.LVL148
 4237 0dc8 6C1C0000 		.4byte	0x1c6c
 4238 0dcc DC0D0000 		.4byte	0xddc
 4239 0dd0 0B       		.uleb128 0xb
 4240 0dd1 01       		.uleb128 0x1
 4241 0dd2 50       		.byte	0x50
 4242 0dd3 01       		.uleb128 0x1
 4243 0dd4 3A       		.byte	0x3a
 4244 0dd5 0B       		.uleb128 0xb
 4245 0dd6 01       		.uleb128 0x1
 4246 0dd7 51       		.byte	0x51
 4247 0dd8 02       		.uleb128 0x2
 4248 0dd9 08       		.byte	0x8
 4249 0dda 6B       		.byte	0x6b
 4250 0ddb 00       		.byte	0
 4251 0ddc 0A       		.uleb128 0xa
 4252 0ddd 30010000 		.4byte	.LVL149
 4253 0de1 6C1C0000 		.4byte	0x1c6c
 4254 0de5 F50D0000 		.4byte	0xdf5
 4255 0de9 0B       		.uleb128 0xb
 4256 0dea 01       		.uleb128 0x1
 4257 0deb 50       		.byte	0x50
 4258 0dec 01       		.uleb128 0x1
 4259 0ded 3A       		.byte	0x3a
 4260 0dee 0B       		.uleb128 0xb
 4261 0def 01       		.uleb128 0x1
 4262 0df0 51       		.byte	0x51
 4263 0df1 02       		.uleb128 0x2
 4264 0df2 08       		.byte	0x8
 4265 0df3 55       		.byte	0x55
 4266 0df4 00       		.byte	0
 4267 0df5 0A       		.uleb128 0xa
 4268 0df6 38010000 		.4byte	.LVL150
 4269 0dfa 6C1C0000 		.4byte	0x1c6c
 4270 0dfe 0E0E0000 		.4byte	0xe0e
 4271 0e02 0B       		.uleb128 0xb
 4272 0e03 01       		.uleb128 0x1
 4273 0e04 50       		.byte	0x50
 4274 0e05 01       		.uleb128 0x1
 4275 0e06 3A       		.byte	0x3a
 4276 0e07 0B       		.uleb128 0xb
 4277 0e08 01       		.uleb128 0x1
 4278 0e09 51       		.byte	0x51
 4279 0e0a 02       		.uleb128 0x2
 4280 0e0b 08       		.byte	0x8
 4281 0e0c 48       		.byte	0x48
 4282 0e0d 00       		.byte	0
 4283 0e0e 0A       		.uleb128 0xa
 4284 0e0f 40010000 		.4byte	.LVL151
 4285 0e13 6C1C0000 		.4byte	0x1c6c
 4286 0e17 270E0000 		.4byte	0xe27
ARM GAS  C:\Users\8523~1\AppData\Local\Temp\ccJE8vL2.s 			page 102


 4287 0e1b 0B       		.uleb128 0xb
 4288 0e1c 01       		.uleb128 0x1
 4289 0e1d 50       		.byte	0x50
 4290 0e1e 01       		.uleb128 0x1
 4291 0e1f 3A       		.byte	0x3a
 4292 0e20 0B       		.uleb128 0xb
 4293 0e21 01       		.uleb128 0x1
 4294 0e22 51       		.byte	0x51
 4295 0e23 02       		.uleb128 0x2
 4296 0e24 09       		.byte	0x9
 4297 0e25 8F       		.byte	0x8f
 4298 0e26 00       		.byte	0
 4299 0e27 0A       		.uleb128 0xa
 4300 0e28 48010000 		.4byte	.LVL152
 4301 0e2c 6C1C0000 		.4byte	0x1c6c
 4302 0e30 400E0000 		.4byte	0xe40
 4303 0e34 0B       		.uleb128 0xb
 4304 0e35 01       		.uleb128 0x1
 4305 0e36 50       		.byte	0x50
 4306 0e37 01       		.uleb128 0x1
 4307 0e38 3A       		.byte	0x3a
 4308 0e39 0B       		.uleb128 0xb
 4309 0e3a 01       		.uleb128 0x1
 4310 0e3b 51       		.byte	0x51
 4311 0e3c 02       		.uleb128 0x2
 4312 0e3d 08       		.byte	0x8
 4313 0e3e 6B       		.byte	0x6b
 4314 0e3f 00       		.byte	0
 4315 0e40 0A       		.uleb128 0xa
 4316 0e41 50010000 		.4byte	.LVL153
 4317 0e45 6C1C0000 		.4byte	0x1c6c
 4318 0e49 590E0000 		.4byte	0xe59
 4319 0e4d 0B       		.uleb128 0xb
 4320 0e4e 01       		.uleb128 0x1
 4321 0e4f 50       		.byte	0x50
 4322 0e50 01       		.uleb128 0x1
 4323 0e51 3A       		.byte	0x3a
 4324 0e52 0B       		.uleb128 0xb
 4325 0e53 01       		.uleb128 0x1
 4326 0e54 51       		.byte	0x51
 4327 0e55 02       		.uleb128 0x2
 4328 0e56 08       		.byte	0x8
 4329 0e57 55       		.byte	0x55
 4330 0e58 00       		.byte	0
 4331 0e59 0A       		.uleb128 0xa
 4332 0e5a 58010000 		.4byte	.LVL154
 4333 0e5e 6C1C0000 		.4byte	0x1c6c
 4334 0e62 720E0000 		.4byte	0xe72
 4335 0e66 0B       		.uleb128 0xb
 4336 0e67 01       		.uleb128 0x1
 4337 0e68 50       		.byte	0x50
 4338 0e69 01       		.uleb128 0x1
 4339 0e6a 3A       		.byte	0x3a
 4340 0e6b 0B       		.uleb128 0xb
 4341 0e6c 01       		.uleb128 0x1
 4342 0e6d 51       		.byte	0x51
 4343 0e6e 02       		.uleb128 0x2
ARM GAS  C:\Users\8523~1\AppData\Local\Temp\ccJE8vL2.s 			page 103


 4344 0e6f 08       		.byte	0x8
 4345 0e70 48       		.byte	0x48
 4346 0e71 00       		.byte	0
 4347 0e72 0A       		.uleb128 0xa
 4348 0e73 60010000 		.4byte	.LVL155
 4349 0e77 6C1C0000 		.4byte	0x1c6c
 4350 0e7b 8B0E0000 		.4byte	0xe8b
 4351 0e7f 0B       		.uleb128 0xb
 4352 0e80 01       		.uleb128 0x1
 4353 0e81 50       		.byte	0x50
 4354 0e82 01       		.uleb128 0x1
 4355 0e83 3A       		.byte	0x3a
 4356 0e84 0B       		.uleb128 0xb
 4357 0e85 01       		.uleb128 0x1
 4358 0e86 51       		.byte	0x51
 4359 0e87 02       		.uleb128 0x2
 4360 0e88 09       		.byte	0x9
 4361 0e89 8F       		.byte	0x8f
 4362 0e8a 00       		.byte	0
 4363 0e8b 0A       		.uleb128 0xa
 4364 0e8c 68010000 		.4byte	.LVL156
 4365 0e90 6C1C0000 		.4byte	0x1c6c
 4366 0e94 A40E0000 		.4byte	0xea4
 4367 0e98 0B       		.uleb128 0xb
 4368 0e99 01       		.uleb128 0x1
 4369 0e9a 50       		.byte	0x50
 4370 0e9b 01       		.uleb128 0x1
 4371 0e9c 3A       		.byte	0x3a
 4372 0e9d 0B       		.uleb128 0xb
 4373 0e9e 01       		.uleb128 0x1
 4374 0e9f 51       		.byte	0x51
 4375 0ea0 02       		.uleb128 0x2
 4376 0ea1 08       		.byte	0x8
 4377 0ea2 6B       		.byte	0x6b
 4378 0ea3 00       		.byte	0
 4379 0ea4 0A       		.uleb128 0xa
 4380 0ea5 70010000 		.4byte	.LVL157
 4381 0ea9 6C1C0000 		.4byte	0x1c6c
 4382 0ead BD0E0000 		.4byte	0xebd
 4383 0eb1 0B       		.uleb128 0xb
 4384 0eb2 01       		.uleb128 0x1
 4385 0eb3 50       		.byte	0x50
 4386 0eb4 01       		.uleb128 0x1
 4387 0eb5 3A       		.byte	0x3a
 4388 0eb6 0B       		.uleb128 0xb
 4389 0eb7 01       		.uleb128 0x1
 4390 0eb8 51       		.byte	0x51
 4391 0eb9 02       		.uleb128 0x2
 4392 0eba 08       		.byte	0x8
 4393 0ebb 55       		.byte	0x55
 4394 0ebc 00       		.byte	0
 4395 0ebd 0A       		.uleb128 0xa
 4396 0ebe 78010000 		.4byte	.LVL158
 4397 0ec2 6C1C0000 		.4byte	0x1c6c
 4398 0ec6 D60E0000 		.4byte	0xed6
 4399 0eca 0B       		.uleb128 0xb
 4400 0ecb 01       		.uleb128 0x1
ARM GAS  C:\Users\8523~1\AppData\Local\Temp\ccJE8vL2.s 			page 104


 4401 0ecc 50       		.byte	0x50
 4402 0ecd 01       		.uleb128 0x1
 4403 0ece 3A       		.byte	0x3a
 4404 0ecf 0B       		.uleb128 0xb
 4405 0ed0 01       		.uleb128 0x1
 4406 0ed1 51       		.byte	0x51
 4407 0ed2 02       		.uleb128 0x2
 4408 0ed3 08       		.byte	0x8
 4409 0ed4 48       		.byte	0x48
 4410 0ed5 00       		.byte	0
 4411 0ed6 0A       		.uleb128 0xa
 4412 0ed7 80010000 		.4byte	.LVL159
 4413 0edb 6C1C0000 		.4byte	0x1c6c
 4414 0edf EF0E0000 		.4byte	0xeef
 4415 0ee3 0B       		.uleb128 0xb
 4416 0ee4 01       		.uleb128 0x1
 4417 0ee5 50       		.byte	0x50
 4418 0ee6 01       		.uleb128 0x1
 4419 0ee7 3A       		.byte	0x3a
 4420 0ee8 0B       		.uleb128 0xb
 4421 0ee9 01       		.uleb128 0x1
 4422 0eea 51       		.byte	0x51
 4423 0eeb 02       		.uleb128 0x2
 4424 0eec 09       		.byte	0x9
 4425 0eed 8F       		.byte	0x8f
 4426 0eee 00       		.byte	0
 4427 0eef 0A       		.uleb128 0xa
 4428 0ef0 88010000 		.4byte	.LVL160
 4429 0ef4 6C1C0000 		.4byte	0x1c6c
 4430 0ef8 080F0000 		.4byte	0xf08
 4431 0efc 0B       		.uleb128 0xb
 4432 0efd 01       		.uleb128 0x1
 4433 0efe 50       		.byte	0x50
 4434 0eff 01       		.uleb128 0x1
 4435 0f00 3A       		.byte	0x3a
 4436 0f01 0B       		.uleb128 0xb
 4437 0f02 01       		.uleb128 0x1
 4438 0f03 51       		.byte	0x51
 4439 0f04 02       		.uleb128 0x2
 4440 0f05 08       		.byte	0x8
 4441 0f06 6B       		.byte	0x6b
 4442 0f07 00       		.byte	0
 4443 0f08 0A       		.uleb128 0xa
 4444 0f09 90010000 		.4byte	.LVL161
 4445 0f0d 6C1C0000 		.4byte	0x1c6c
 4446 0f11 210F0000 		.4byte	0xf21
 4447 0f15 0B       		.uleb128 0xb
 4448 0f16 01       		.uleb128 0x1
 4449 0f17 50       		.byte	0x50
 4450 0f18 01       		.uleb128 0x1
 4451 0f19 3A       		.byte	0x3a
 4452 0f1a 0B       		.uleb128 0xb
 4453 0f1b 01       		.uleb128 0x1
 4454 0f1c 51       		.byte	0x51
 4455 0f1d 02       		.uleb128 0x2
 4456 0f1e 08       		.byte	0x8
 4457 0f1f 55       		.byte	0x55
ARM GAS  C:\Users\8523~1\AppData\Local\Temp\ccJE8vL2.s 			page 105


 4458 0f20 00       		.byte	0
 4459 0f21 0A       		.uleb128 0xa
 4460 0f22 96010000 		.4byte	.LVL162
 4461 0f26 081C0000 		.4byte	0x1c08
 4462 0f2a 350F0000 		.4byte	0xf35
 4463 0f2e 0B       		.uleb128 0xb
 4464 0f2f 01       		.uleb128 0x1
 4465 0f30 50       		.byte	0x50
 4466 0f31 02       		.uleb128 0x2
 4467 0f32 08       		.byte	0x8
 4468 0f33 64       		.byte	0x64
 4469 0f34 00       		.byte	0
 4470 0f35 0A       		.uleb128 0xa
 4471 0f36 9E010000 		.4byte	.LVL163
 4472 0f3a 6C1C0000 		.4byte	0x1c6c
 4473 0f3e 4E0F0000 		.4byte	0xf4e
 4474 0f42 0B       		.uleb128 0xb
 4475 0f43 01       		.uleb128 0x1
 4476 0f44 50       		.byte	0x50
 4477 0f45 01       		.uleb128 0x1
 4478 0f46 3A       		.byte	0x3a
 4479 0f47 0B       		.uleb128 0xb
 4480 0f48 01       		.uleb128 0x1
 4481 0f49 51       		.byte	0x51
 4482 0f4a 02       		.uleb128 0x2
 4483 0f4b 09       		.byte	0x9
 4484 0f4c 8F       		.byte	0x8f
 4485 0f4d 00       		.byte	0
 4486 0f4e 0A       		.uleb128 0xa
 4487 0f4f A6010000 		.4byte	.LVL164
 4488 0f53 6C1C0000 		.4byte	0x1c6c
 4489 0f57 670F0000 		.4byte	0xf67
 4490 0f5b 0B       		.uleb128 0xb
 4491 0f5c 01       		.uleb128 0x1
 4492 0f5d 50       		.byte	0x50
 4493 0f5e 01       		.uleb128 0x1
 4494 0f5f 3A       		.byte	0x3a
 4495 0f60 0B       		.uleb128 0xb
 4496 0f61 01       		.uleb128 0x1
 4497 0f62 51       		.byte	0x51
 4498 0f63 02       		.uleb128 0x2
 4499 0f64 08       		.byte	0x8
 4500 0f65 6B       		.byte	0x6b
 4501 0f66 00       		.byte	0
 4502 0f67 0A       		.uleb128 0xa
 4503 0f68 AE010000 		.4byte	.LVL165
 4504 0f6c 6C1C0000 		.4byte	0x1c6c
 4505 0f70 800F0000 		.4byte	0xf80
 4506 0f74 0B       		.uleb128 0xb
 4507 0f75 01       		.uleb128 0x1
 4508 0f76 50       		.byte	0x50
 4509 0f77 01       		.uleb128 0x1
 4510 0f78 3A       		.byte	0x3a
 4511 0f79 0B       		.uleb128 0xb
 4512 0f7a 01       		.uleb128 0x1
 4513 0f7b 51       		.byte	0x51
 4514 0f7c 02       		.uleb128 0x2
ARM GAS  C:\Users\8523~1\AppData\Local\Temp\ccJE8vL2.s 			page 106


 4515 0f7d 08       		.byte	0x8
 4516 0f7e 55       		.byte	0x55
 4517 0f7f 00       		.byte	0
 4518 0f80 0A       		.uleb128 0xa
 4519 0f81 B6010000 		.4byte	.LVL166
 4520 0f85 6C1C0000 		.4byte	0x1c6c
 4521 0f89 990F0000 		.4byte	0xf99
 4522 0f8d 0B       		.uleb128 0xb
 4523 0f8e 01       		.uleb128 0x1
 4524 0f8f 50       		.byte	0x50
 4525 0f90 01       		.uleb128 0x1
 4526 0f91 3A       		.byte	0x3a
 4527 0f92 0B       		.uleb128 0xb
 4528 0f93 01       		.uleb128 0x1
 4529 0f94 51       		.byte	0x51
 4530 0f95 02       		.uleb128 0x2
 4531 0f96 08       		.byte	0x8
 4532 0f97 48       		.byte	0x48
 4533 0f98 00       		.byte	0
 4534 0f99 0A       		.uleb128 0xa
 4535 0f9a BE010000 		.4byte	.LVL167
 4536 0f9e 6C1C0000 		.4byte	0x1c6c
 4537 0fa2 B20F0000 		.4byte	0xfb2
 4538 0fa6 0B       		.uleb128 0xb
 4539 0fa7 01       		.uleb128 0x1
 4540 0fa8 50       		.byte	0x50
 4541 0fa9 01       		.uleb128 0x1
 4542 0faa 3A       		.byte	0x3a
 4543 0fab 0B       		.uleb128 0xb
 4544 0fac 01       		.uleb128 0x1
 4545 0fad 51       		.byte	0x51
 4546 0fae 02       		.uleb128 0x2
 4547 0faf 09       		.byte	0x9
 4548 0fb0 8F       		.byte	0x8f
 4549 0fb1 00       		.byte	0
 4550 0fb2 0A       		.uleb128 0xa
 4551 0fb3 C6010000 		.4byte	.LVL168
 4552 0fb7 6C1C0000 		.4byte	0x1c6c
 4553 0fbb CB0F0000 		.4byte	0xfcb
 4554 0fbf 0B       		.uleb128 0xb
 4555 0fc0 01       		.uleb128 0x1
 4556 0fc1 50       		.byte	0x50
 4557 0fc2 01       		.uleb128 0x1
 4558 0fc3 3A       		.byte	0x3a
 4559 0fc4 0B       		.uleb128 0xb
 4560 0fc5 01       		.uleb128 0x1
 4561 0fc6 51       		.byte	0x51
 4562 0fc7 02       		.uleb128 0x2
 4563 0fc8 08       		.byte	0x8
 4564 0fc9 6B       		.byte	0x6b
 4565 0fca 00       		.byte	0
 4566 0fcb 0A       		.uleb128 0xa
 4567 0fcc CE010000 		.4byte	.LVL169
 4568 0fd0 6C1C0000 		.4byte	0x1c6c
 4569 0fd4 E40F0000 		.4byte	0xfe4
 4570 0fd8 0B       		.uleb128 0xb
 4571 0fd9 01       		.uleb128 0x1
ARM GAS  C:\Users\8523~1\AppData\Local\Temp\ccJE8vL2.s 			page 107


 4572 0fda 50       		.byte	0x50
 4573 0fdb 01       		.uleb128 0x1
 4574 0fdc 3A       		.byte	0x3a
 4575 0fdd 0B       		.uleb128 0xb
 4576 0fde 01       		.uleb128 0x1
 4577 0fdf 51       		.byte	0x51
 4578 0fe0 02       		.uleb128 0x2
 4579 0fe1 08       		.byte	0x8
 4580 0fe2 55       		.byte	0x55
 4581 0fe3 00       		.byte	0
 4582 0fe4 0A       		.uleb128 0xa
 4583 0fe5 D6010000 		.4byte	.LVL170
 4584 0fe9 6C1C0000 		.4byte	0x1c6c
 4585 0fed FD0F0000 		.4byte	0xffd
 4586 0ff1 0B       		.uleb128 0xb
 4587 0ff2 01       		.uleb128 0x1
 4588 0ff3 50       		.byte	0x50
 4589 0ff4 01       		.uleb128 0x1
 4590 0ff5 3A       		.byte	0x3a
 4591 0ff6 0B       		.uleb128 0xb
 4592 0ff7 01       		.uleb128 0x1
 4593 0ff8 51       		.byte	0x51
 4594 0ff9 02       		.uleb128 0x2
 4595 0ffa 08       		.byte	0x8
 4596 0ffb 48       		.byte	0x48
 4597 0ffc 00       		.byte	0
 4598 0ffd 0A       		.uleb128 0xa
 4599 0ffe DE010000 		.4byte	.LVL171
 4600 1002 6C1C0000 		.4byte	0x1c6c
 4601 1006 16100000 		.4byte	0x1016
 4602 100a 0B       		.uleb128 0xb
 4603 100b 01       		.uleb128 0x1
 4604 100c 50       		.byte	0x50
 4605 100d 01       		.uleb128 0x1
 4606 100e 3A       		.byte	0x3a
 4607 100f 0B       		.uleb128 0xb
 4608 1010 01       		.uleb128 0x1
 4609 1011 51       		.byte	0x51
 4610 1012 02       		.uleb128 0x2
 4611 1013 09       		.byte	0x9
 4612 1014 8F       		.byte	0x8f
 4613 1015 00       		.byte	0
 4614 1016 0A       		.uleb128 0xa
 4615 1017 E6010000 		.4byte	.LVL172
 4616 101b 6C1C0000 		.4byte	0x1c6c
 4617 101f 2F100000 		.4byte	0x102f
 4618 1023 0B       		.uleb128 0xb
 4619 1024 01       		.uleb128 0x1
 4620 1025 50       		.byte	0x50
 4621 1026 01       		.uleb128 0x1
 4622 1027 3A       		.byte	0x3a
 4623 1028 0B       		.uleb128 0xb
 4624 1029 01       		.uleb128 0x1
 4625 102a 51       		.byte	0x51
 4626 102b 02       		.uleb128 0x2
 4627 102c 08       		.byte	0x8
 4628 102d 6B       		.byte	0x6b
ARM GAS  C:\Users\8523~1\AppData\Local\Temp\ccJE8vL2.s 			page 108


 4629 102e 00       		.byte	0
 4630 102f 0A       		.uleb128 0xa
 4631 1030 EE010000 		.4byte	.LVL173
 4632 1034 6C1C0000 		.4byte	0x1c6c
 4633 1038 48100000 		.4byte	0x1048
 4634 103c 0B       		.uleb128 0xb
 4635 103d 01       		.uleb128 0x1
 4636 103e 50       		.byte	0x50
 4637 103f 01       		.uleb128 0x1
 4638 1040 3A       		.byte	0x3a
 4639 1041 0B       		.uleb128 0xb
 4640 1042 01       		.uleb128 0x1
 4641 1043 51       		.byte	0x51
 4642 1044 02       		.uleb128 0x2
 4643 1045 08       		.byte	0x8
 4644 1046 55       		.byte	0x55
 4645 1047 00       		.byte	0
 4646 1048 0A       		.uleb128 0xa
 4647 1049 F6010000 		.4byte	.LVL174
 4648 104d 6C1C0000 		.4byte	0x1c6c
 4649 1051 61100000 		.4byte	0x1061
 4650 1055 0B       		.uleb128 0xb
 4651 1056 01       		.uleb128 0x1
 4652 1057 50       		.byte	0x50
 4653 1058 01       		.uleb128 0x1
 4654 1059 3A       		.byte	0x3a
 4655 105a 0B       		.uleb128 0xb
 4656 105b 01       		.uleb128 0x1
 4657 105c 51       		.byte	0x51
 4658 105d 02       		.uleb128 0x2
 4659 105e 08       		.byte	0x8
 4660 105f 48       		.byte	0x48
 4661 1060 00       		.byte	0
 4662 1061 0A       		.uleb128 0xa
 4663 1062 FE010000 		.4byte	.LVL175
 4664 1066 6C1C0000 		.4byte	0x1c6c
 4665 106a 7A100000 		.4byte	0x107a
 4666 106e 0B       		.uleb128 0xb
 4667 106f 01       		.uleb128 0x1
 4668 1070 50       		.byte	0x50
 4669 1071 01       		.uleb128 0x1
 4670 1072 3A       		.byte	0x3a
 4671 1073 0B       		.uleb128 0xb
 4672 1074 01       		.uleb128 0x1
 4673 1075 51       		.byte	0x51
 4674 1076 02       		.uleb128 0x2
 4675 1077 09       		.byte	0x9
 4676 1078 8F       		.byte	0x8f
 4677 1079 00       		.byte	0
 4678 107a 0A       		.uleb128 0xa
 4679 107b 06020000 		.4byte	.LVL176
 4680 107f 6C1C0000 		.4byte	0x1c6c
 4681 1083 93100000 		.4byte	0x1093
 4682 1087 0B       		.uleb128 0xb
 4683 1088 01       		.uleb128 0x1
 4684 1089 50       		.byte	0x50
 4685 108a 01       		.uleb128 0x1
ARM GAS  C:\Users\8523~1\AppData\Local\Temp\ccJE8vL2.s 			page 109


 4686 108b 3A       		.byte	0x3a
 4687 108c 0B       		.uleb128 0xb
 4688 108d 01       		.uleb128 0x1
 4689 108e 51       		.byte	0x51
 4690 108f 02       		.uleb128 0x2
 4691 1090 08       		.byte	0x8
 4692 1091 6B       		.byte	0x6b
 4693 1092 00       		.byte	0
 4694 1093 0A       		.uleb128 0xa
 4695 1094 0E020000 		.4byte	.LVL177
 4696 1098 6C1C0000 		.4byte	0x1c6c
 4697 109c AC100000 		.4byte	0x10ac
 4698 10a0 0B       		.uleb128 0xb
 4699 10a1 01       		.uleb128 0x1
 4700 10a2 50       		.byte	0x50
 4701 10a3 01       		.uleb128 0x1
 4702 10a4 3A       		.byte	0x3a
 4703 10a5 0B       		.uleb128 0xb
 4704 10a6 01       		.uleb128 0x1
 4705 10a7 51       		.byte	0x51
 4706 10a8 02       		.uleb128 0x2
 4707 10a9 08       		.byte	0x8
 4708 10aa 55       		.byte	0x55
 4709 10ab 00       		.byte	0
 4710 10ac 0A       		.uleb128 0xa
 4711 10ad 14020000 		.4byte	.LVL178
 4712 10b1 081C0000 		.4byte	0x1c08
 4713 10b5 C0100000 		.4byte	0x10c0
 4714 10b9 0B       		.uleb128 0xb
 4715 10ba 01       		.uleb128 0x1
 4716 10bb 50       		.byte	0x50
 4717 10bc 02       		.uleb128 0x2
 4718 10bd 08       		.byte	0x8
 4719 10be 64       		.byte	0x64
 4720 10bf 00       		.byte	0
 4721 10c0 0A       		.uleb128 0xa
 4722 10c1 1C020000 		.4byte	.LVL179
 4723 10c5 6C1C0000 		.4byte	0x1c6c
 4724 10c9 D9100000 		.4byte	0x10d9
 4725 10cd 0B       		.uleb128 0xb
 4726 10ce 01       		.uleb128 0x1
 4727 10cf 50       		.byte	0x50
 4728 10d0 01       		.uleb128 0x1
 4729 10d1 3A       		.byte	0x3a
 4730 10d2 0B       		.uleb128 0xb
 4731 10d3 01       		.uleb128 0x1
 4732 10d4 51       		.byte	0x51
 4733 10d5 02       		.uleb128 0x2
 4734 10d6 09       		.byte	0x9
 4735 10d7 FF       		.byte	0xff
 4736 10d8 00       		.byte	0
 4737 10d9 0A       		.uleb128 0xa
 4738 10da 24020000 		.4byte	.LVL180
 4739 10de 6C1C0000 		.4byte	0x1c6c
 4740 10e2 F2100000 		.4byte	0x10f2
 4741 10e6 0B       		.uleb128 0xb
 4742 10e7 01       		.uleb128 0x1
ARM GAS  C:\Users\8523~1\AppData\Local\Temp\ccJE8vL2.s 			page 110


 4743 10e8 50       		.byte	0x50
 4744 10e9 01       		.uleb128 0x1
 4745 10ea 3A       		.byte	0x3a
 4746 10eb 0B       		.uleb128 0xb
 4747 10ec 01       		.uleb128 0x1
 4748 10ed 51       		.byte	0x51
 4749 10ee 02       		.uleb128 0x2
 4750 10ef 08       		.byte	0x8
 4751 10f0 60       		.byte	0x60
 4752 10f1 00       		.byte	0
 4753 10f2 0A       		.uleb128 0xa
 4754 10f3 2C020000 		.4byte	.LVL181
 4755 10f7 6C1C0000 		.4byte	0x1c6c
 4756 10fb 0B110000 		.4byte	0x110b
 4757 10ff 0B       		.uleb128 0xb
 4758 1100 01       		.uleb128 0x1
 4759 1101 50       		.byte	0x50
 4760 1102 01       		.uleb128 0x1
 4761 1103 3A       		.byte	0x3a
 4762 1104 0B       		.uleb128 0xb
 4763 1105 01       		.uleb128 0x1
 4764 1106 51       		.byte	0x51
 4765 1107 02       		.uleb128 0x2
 4766 1108 08       		.byte	0x8
 4767 1109 4C       		.byte	0x4c
 4768 110a 00       		.byte	0
 4769 110b 0A       		.uleb128 0xa
 4770 110c 34020000 		.4byte	.LVL182
 4771 1110 6C1C0000 		.4byte	0x1c6c
 4772 1114 24110000 		.4byte	0x1124
 4773 1118 0B       		.uleb128 0xb
 4774 1119 01       		.uleb128 0x1
 4775 111a 50       		.byte	0x50
 4776 111b 01       		.uleb128 0x1
 4777 111c 3A       		.byte	0x3a
 4778 111d 0B       		.uleb128 0xb
 4779 111e 01       		.uleb128 0x1
 4780 111f 51       		.byte	0x51
 4781 1120 02       		.uleb128 0x2
 4782 1121 08       		.byte	0x8
 4783 1122 40       		.byte	0x40
 4784 1123 00       		.byte	0
 4785 1124 0A       		.uleb128 0xa
 4786 1125 3C020000 		.4byte	.LVL183
 4787 1129 6C1C0000 		.4byte	0x1c6c
 4788 112d 3D110000 		.4byte	0x113d
 4789 1131 0B       		.uleb128 0xb
 4790 1132 01       		.uleb128 0x1
 4791 1133 50       		.byte	0x50
 4792 1134 01       		.uleb128 0x1
 4793 1135 3A       		.byte	0x3a
 4794 1136 0B       		.uleb128 0xb
 4795 1137 01       		.uleb128 0x1
 4796 1138 51       		.byte	0x51
 4797 1139 02       		.uleb128 0x2
 4798 113a 09       		.byte	0x9
 4799 113b FF       		.byte	0xff
ARM GAS  C:\Users\8523~1\AppData\Local\Temp\ccJE8vL2.s 			page 111


 4800 113c 00       		.byte	0
 4801 113d 0A       		.uleb128 0xa
 4802 113e 44020000 		.4byte	.LVL184
 4803 1142 6C1C0000 		.4byte	0x1c6c
 4804 1146 56110000 		.4byte	0x1156
 4805 114a 0B       		.uleb128 0xb
 4806 114b 01       		.uleb128 0x1
 4807 114c 50       		.byte	0x50
 4808 114d 01       		.uleb128 0x1
 4809 114e 3A       		.byte	0x3a
 4810 114f 0B       		.uleb128 0xb
 4811 1150 01       		.uleb128 0x1
 4812 1151 51       		.byte	0x51
 4813 1152 02       		.uleb128 0x2
 4814 1153 08       		.byte	0x8
 4815 1154 60       		.byte	0x60
 4816 1155 00       		.byte	0
 4817 1156 0A       		.uleb128 0xa
 4818 1157 4C020000 		.4byte	.LVL185
 4819 115b 6C1C0000 		.4byte	0x1c6c
 4820 115f 6F110000 		.4byte	0x116f
 4821 1163 0B       		.uleb128 0xb
 4822 1164 01       		.uleb128 0x1
 4823 1165 50       		.byte	0x50
 4824 1166 01       		.uleb128 0x1
 4825 1167 3A       		.byte	0x3a
 4826 1168 0B       		.uleb128 0xb
 4827 1169 01       		.uleb128 0x1
 4828 116a 51       		.byte	0x51
 4829 116b 02       		.uleb128 0x2
 4830 116c 08       		.byte	0x8
 4831 116d 4C       		.byte	0x4c
 4832 116e 00       		.byte	0
 4833 116f 0A       		.uleb128 0xa
 4834 1170 54020000 		.4byte	.LVL186
 4835 1174 6C1C0000 		.4byte	0x1c6c
 4836 1178 88110000 		.4byte	0x1188
 4837 117c 0B       		.uleb128 0xb
 4838 117d 01       		.uleb128 0x1
 4839 117e 50       		.byte	0x50
 4840 117f 01       		.uleb128 0x1
 4841 1180 3A       		.byte	0x3a
 4842 1181 0B       		.uleb128 0xb
 4843 1182 01       		.uleb128 0x1
 4844 1183 51       		.byte	0x51
 4845 1184 02       		.uleb128 0x2
 4846 1185 08       		.byte	0x8
 4847 1186 40       		.byte	0x40
 4848 1187 00       		.byte	0
 4849 1188 0A       		.uleb128 0xa
 4850 1189 5C020000 		.4byte	.LVL187
 4851 118d 6C1C0000 		.4byte	0x1c6c
 4852 1191 A1110000 		.4byte	0x11a1
 4853 1195 0B       		.uleb128 0xb
 4854 1196 01       		.uleb128 0x1
 4855 1197 50       		.byte	0x50
 4856 1198 01       		.uleb128 0x1
ARM GAS  C:\Users\8523~1\AppData\Local\Temp\ccJE8vL2.s 			page 112


 4857 1199 3A       		.byte	0x3a
 4858 119a 0B       		.uleb128 0xb
 4859 119b 01       		.uleb128 0x1
 4860 119c 51       		.byte	0x51
 4861 119d 02       		.uleb128 0x2
 4862 119e 09       		.byte	0x9
 4863 119f FF       		.byte	0xff
 4864 11a0 00       		.byte	0
 4865 11a1 0A       		.uleb128 0xa
 4866 11a2 64020000 		.4byte	.LVL188
 4867 11a6 6C1C0000 		.4byte	0x1c6c
 4868 11aa BA110000 		.4byte	0x11ba
 4869 11ae 0B       		.uleb128 0xb
 4870 11af 01       		.uleb128 0x1
 4871 11b0 50       		.byte	0x50
 4872 11b1 01       		.uleb128 0x1
 4873 11b2 3A       		.byte	0x3a
 4874 11b3 0B       		.uleb128 0xb
 4875 11b4 01       		.uleb128 0x1
 4876 11b5 51       		.byte	0x51
 4877 11b6 02       		.uleb128 0x2
 4878 11b7 08       		.byte	0x8
 4879 11b8 60       		.byte	0x60
 4880 11b9 00       		.byte	0
 4881 11ba 0A       		.uleb128 0xa
 4882 11bb 6C020000 		.4byte	.LVL189
 4883 11bf 6C1C0000 		.4byte	0x1c6c
 4884 11c3 D3110000 		.4byte	0x11d3
 4885 11c7 0B       		.uleb128 0xb
 4886 11c8 01       		.uleb128 0x1
 4887 11c9 50       		.byte	0x50
 4888 11ca 01       		.uleb128 0x1
 4889 11cb 3A       		.byte	0x3a
 4890 11cc 0B       		.uleb128 0xb
 4891 11cd 01       		.uleb128 0x1
 4892 11ce 51       		.byte	0x51
 4893 11cf 02       		.uleb128 0x2
 4894 11d0 08       		.byte	0x8
 4895 11d1 4C       		.byte	0x4c
 4896 11d2 00       		.byte	0
 4897 11d3 0A       		.uleb128 0xa
 4898 11d4 74020000 		.4byte	.LVL190
 4899 11d8 6C1C0000 		.4byte	0x1c6c
 4900 11dc EC110000 		.4byte	0x11ec
 4901 11e0 0B       		.uleb128 0xb
 4902 11e1 01       		.uleb128 0x1
 4903 11e2 50       		.byte	0x50
 4904 11e3 01       		.uleb128 0x1
 4905 11e4 3A       		.byte	0x3a
 4906 11e5 0B       		.uleb128 0xb
 4907 11e6 01       		.uleb128 0x1
 4908 11e7 51       		.byte	0x51
 4909 11e8 02       		.uleb128 0x2
 4910 11e9 08       		.byte	0x8
 4911 11ea 40       		.byte	0x40
 4912 11eb 00       		.byte	0
 4913 11ec 0A       		.uleb128 0xa
ARM GAS  C:\Users\8523~1\AppData\Local\Temp\ccJE8vL2.s 			page 113


 4914 11ed 7C020000 		.4byte	.LVL191
 4915 11f1 6C1C0000 		.4byte	0x1c6c
 4916 11f5 05120000 		.4byte	0x1205
 4917 11f9 0B       		.uleb128 0xb
 4918 11fa 01       		.uleb128 0x1
 4919 11fb 50       		.byte	0x50
 4920 11fc 01       		.uleb128 0x1
 4921 11fd 3A       		.byte	0x3a
 4922 11fe 0B       		.uleb128 0xb
 4923 11ff 01       		.uleb128 0x1
 4924 1200 51       		.byte	0x51
 4925 1201 02       		.uleb128 0x2
 4926 1202 09       		.byte	0x9
 4927 1203 FF       		.byte	0xff
 4928 1204 00       		.byte	0
 4929 1205 0A       		.uleb128 0xa
 4930 1206 84020000 		.4byte	.LVL192
 4931 120a 6C1C0000 		.4byte	0x1c6c
 4932 120e 1E120000 		.4byte	0x121e
 4933 1212 0B       		.uleb128 0xb
 4934 1213 01       		.uleb128 0x1
 4935 1214 50       		.byte	0x50
 4936 1215 01       		.uleb128 0x1
 4937 1216 3A       		.byte	0x3a
 4938 1217 0B       		.uleb128 0xb
 4939 1218 01       		.uleb128 0x1
 4940 1219 51       		.byte	0x51
 4941 121a 02       		.uleb128 0x2
 4942 121b 08       		.byte	0x8
 4943 121c 60       		.byte	0x60
 4944 121d 00       		.byte	0
 4945 121e 0A       		.uleb128 0xa
 4946 121f 8C020000 		.4byte	.LVL193
 4947 1223 6C1C0000 		.4byte	0x1c6c
 4948 1227 37120000 		.4byte	0x1237
 4949 122b 0B       		.uleb128 0xb
 4950 122c 01       		.uleb128 0x1
 4951 122d 50       		.byte	0x50
 4952 122e 01       		.uleb128 0x1
 4953 122f 3A       		.byte	0x3a
 4954 1230 0B       		.uleb128 0xb
 4955 1231 01       		.uleb128 0x1
 4956 1232 51       		.byte	0x51
 4957 1233 02       		.uleb128 0x2
 4958 1234 08       		.byte	0x8
 4959 1235 4C       		.byte	0x4c
 4960 1236 00       		.byte	0
 4961 1237 0A       		.uleb128 0xa
 4962 1238 92020000 		.4byte	.LVL194
 4963 123c 081C0000 		.4byte	0x1c08
 4964 1240 4B120000 		.4byte	0x124b
 4965 1244 0B       		.uleb128 0xb
 4966 1245 01       		.uleb128 0x1
 4967 1246 50       		.byte	0x50
 4968 1247 02       		.uleb128 0x2
 4969 1248 08       		.byte	0x8
 4970 1249 64       		.byte	0x64
ARM GAS  C:\Users\8523~1\AppData\Local\Temp\ccJE8vL2.s 			page 114


 4971 124a 00       		.byte	0
 4972 124b 0A       		.uleb128 0xa
 4973 124c 9A020000 		.4byte	.LVL195
 4974 1250 6C1C0000 		.4byte	0x1c6c
 4975 1254 64120000 		.4byte	0x1264
 4976 1258 0B       		.uleb128 0xb
 4977 1259 01       		.uleb128 0x1
 4978 125a 50       		.byte	0x50
 4979 125b 01       		.uleb128 0x1
 4980 125c 3A       		.byte	0x3a
 4981 125d 0B       		.uleb128 0xb
 4982 125e 01       		.uleb128 0x1
 4983 125f 51       		.byte	0x51
 4984 1260 02       		.uleb128 0x2
 4985 1261 09       		.byte	0x9
 4986 1262 FF       		.byte	0xff
 4987 1263 00       		.byte	0
 4988 1264 0A       		.uleb128 0xa
 4989 1265 A2020000 		.4byte	.LVL196
 4990 1269 6C1C0000 		.4byte	0x1c6c
 4991 126d 7D120000 		.4byte	0x127d
 4992 1271 0B       		.uleb128 0xb
 4993 1272 01       		.uleb128 0x1
 4994 1273 50       		.byte	0x50
 4995 1274 01       		.uleb128 0x1
 4996 1275 3A       		.byte	0x3a
 4997 1276 0B       		.uleb128 0xb
 4998 1277 01       		.uleb128 0x1
 4999 1278 51       		.byte	0x51
 5000 1279 02       		.uleb128 0x2
 5001 127a 08       		.byte	0x8
 5002 127b 60       		.byte	0x60
 5003 127c 00       		.byte	0
 5004 127d 0A       		.uleb128 0xa
 5005 127e AA020000 		.4byte	.LVL197
 5006 1282 6C1C0000 		.4byte	0x1c6c
 5007 1286 96120000 		.4byte	0x1296
 5008 128a 0B       		.uleb128 0xb
 5009 128b 01       		.uleb128 0x1
 5010 128c 50       		.byte	0x50
 5011 128d 01       		.uleb128 0x1
 5012 128e 3A       		.byte	0x3a
 5013 128f 0B       		.uleb128 0xb
 5014 1290 01       		.uleb128 0x1
 5015 1291 51       		.byte	0x51
 5016 1292 02       		.uleb128 0x2
 5017 1293 08       		.byte	0x8
 5018 1294 4C       		.byte	0x4c
 5019 1295 00       		.byte	0
 5020 1296 0A       		.uleb128 0xa
 5021 1297 B2020000 		.4byte	.LVL198
 5022 129b 6C1C0000 		.4byte	0x1c6c
 5023 129f AF120000 		.4byte	0x12af
 5024 12a3 0B       		.uleb128 0xb
 5025 12a4 01       		.uleb128 0x1
 5026 12a5 50       		.byte	0x50
 5027 12a6 01       		.uleb128 0x1
ARM GAS  C:\Users\8523~1\AppData\Local\Temp\ccJE8vL2.s 			page 115


 5028 12a7 3A       		.byte	0x3a
 5029 12a8 0B       		.uleb128 0xb
 5030 12a9 01       		.uleb128 0x1
 5031 12aa 51       		.byte	0x51
 5032 12ab 02       		.uleb128 0x2
 5033 12ac 08       		.byte	0x8
 5034 12ad 40       		.byte	0x40
 5035 12ae 00       		.byte	0
 5036 12af 0A       		.uleb128 0xa
 5037 12b0 BA020000 		.4byte	.LVL199
 5038 12b4 6C1C0000 		.4byte	0x1c6c
 5039 12b8 C8120000 		.4byte	0x12c8
 5040 12bc 0B       		.uleb128 0xb
 5041 12bd 01       		.uleb128 0x1
 5042 12be 50       		.byte	0x50
 5043 12bf 01       		.uleb128 0x1
 5044 12c0 3A       		.byte	0x3a
 5045 12c1 0B       		.uleb128 0xb
 5046 12c2 01       		.uleb128 0x1
 5047 12c3 51       		.byte	0x51
 5048 12c4 02       		.uleb128 0x2
 5049 12c5 09       		.byte	0x9
 5050 12c6 FF       		.byte	0xff
 5051 12c7 00       		.byte	0
 5052 12c8 0A       		.uleb128 0xa
 5053 12c9 C2020000 		.4byte	.LVL200
 5054 12cd 6C1C0000 		.4byte	0x1c6c
 5055 12d1 E1120000 		.4byte	0x12e1
 5056 12d5 0B       		.uleb128 0xb
 5057 12d6 01       		.uleb128 0x1
 5058 12d7 50       		.byte	0x50
 5059 12d8 01       		.uleb128 0x1
 5060 12d9 3A       		.byte	0x3a
 5061 12da 0B       		.uleb128 0xb
 5062 12db 01       		.uleb128 0x1
 5063 12dc 51       		.byte	0x51
 5064 12dd 02       		.uleb128 0x2
 5065 12de 08       		.byte	0x8
 5066 12df 60       		.byte	0x60
 5067 12e0 00       		.byte	0
 5068 12e1 0A       		.uleb128 0xa
 5069 12e2 CA020000 		.4byte	.LVL201
 5070 12e6 6C1C0000 		.4byte	0x1c6c
 5071 12ea FA120000 		.4byte	0x12fa
 5072 12ee 0B       		.uleb128 0xb
 5073 12ef 01       		.uleb128 0x1
 5074 12f0 50       		.byte	0x50
 5075 12f1 01       		.uleb128 0x1
 5076 12f2 3A       		.byte	0x3a
 5077 12f3 0B       		.uleb128 0xb
 5078 12f4 01       		.uleb128 0x1
 5079 12f5 51       		.byte	0x51
 5080 12f6 02       		.uleb128 0x2
 5081 12f7 08       		.byte	0x8
 5082 12f8 4C       		.byte	0x4c
 5083 12f9 00       		.byte	0
 5084 12fa 0A       		.uleb128 0xa
ARM GAS  C:\Users\8523~1\AppData\Local\Temp\ccJE8vL2.s 			page 116


 5085 12fb D2020000 		.4byte	.LVL202
 5086 12ff 6C1C0000 		.4byte	0x1c6c
 5087 1303 13130000 		.4byte	0x1313
 5088 1307 0B       		.uleb128 0xb
 5089 1308 01       		.uleb128 0x1
 5090 1309 50       		.byte	0x50
 5091 130a 01       		.uleb128 0x1
 5092 130b 3A       		.byte	0x3a
 5093 130c 0B       		.uleb128 0xb
 5094 130d 01       		.uleb128 0x1
 5095 130e 51       		.byte	0x51
 5096 130f 02       		.uleb128 0x2
 5097 1310 08       		.byte	0x8
 5098 1311 40       		.byte	0x40
 5099 1312 00       		.byte	0
 5100 1313 0A       		.uleb128 0xa
 5101 1314 DA020000 		.4byte	.LVL203
 5102 1318 6C1C0000 		.4byte	0x1c6c
 5103 131c 2C130000 		.4byte	0x132c
 5104 1320 0B       		.uleb128 0xb
 5105 1321 01       		.uleb128 0x1
 5106 1322 50       		.byte	0x50
 5107 1323 01       		.uleb128 0x1
 5108 1324 3A       		.byte	0x3a
 5109 1325 0B       		.uleb128 0xb
 5110 1326 01       		.uleb128 0x1
 5111 1327 51       		.byte	0x51
 5112 1328 02       		.uleb128 0x2
 5113 1329 09       		.byte	0x9
 5114 132a FF       		.byte	0xff
 5115 132b 00       		.byte	0
 5116 132c 0A       		.uleb128 0xa
 5117 132d E2020000 		.4byte	.LVL204
 5118 1331 6C1C0000 		.4byte	0x1c6c
 5119 1335 45130000 		.4byte	0x1345
 5120 1339 0B       		.uleb128 0xb
 5121 133a 01       		.uleb128 0x1
 5122 133b 50       		.byte	0x50
 5123 133c 01       		.uleb128 0x1
 5124 133d 3A       		.byte	0x3a
 5125 133e 0B       		.uleb128 0xb
 5126 133f 01       		.uleb128 0x1
 5127 1340 51       		.byte	0x51
 5128 1341 02       		.uleb128 0x2
 5129 1342 08       		.byte	0x8
 5130 1343 60       		.byte	0x60
 5131 1344 00       		.byte	0
 5132 1345 0A       		.uleb128 0xa
 5133 1346 EA020000 		.4byte	.LVL205
 5134 134a 6C1C0000 		.4byte	0x1c6c
 5135 134e 5E130000 		.4byte	0x135e
 5136 1352 0B       		.uleb128 0xb
 5137 1353 01       		.uleb128 0x1
 5138 1354 50       		.byte	0x50
 5139 1355 01       		.uleb128 0x1
 5140 1356 3A       		.byte	0x3a
 5141 1357 0B       		.uleb128 0xb
ARM GAS  C:\Users\8523~1\AppData\Local\Temp\ccJE8vL2.s 			page 117


 5142 1358 01       		.uleb128 0x1
 5143 1359 51       		.byte	0x51
 5144 135a 02       		.uleb128 0x2
 5145 135b 08       		.byte	0x8
 5146 135c 4C       		.byte	0x4c
 5147 135d 00       		.byte	0
 5148 135e 0A       		.uleb128 0xa
 5149 135f F2020000 		.4byte	.LVL206
 5150 1363 6C1C0000 		.4byte	0x1c6c
 5151 1367 77130000 		.4byte	0x1377
 5152 136b 0B       		.uleb128 0xb
 5153 136c 01       		.uleb128 0x1
 5154 136d 50       		.byte	0x50
 5155 136e 01       		.uleb128 0x1
 5156 136f 3A       		.byte	0x3a
 5157 1370 0B       		.uleb128 0xb
 5158 1371 01       		.uleb128 0x1
 5159 1372 51       		.byte	0x51
 5160 1373 02       		.uleb128 0x2
 5161 1374 08       		.byte	0x8
 5162 1375 40       		.byte	0x40
 5163 1376 00       		.byte	0
 5164 1377 0A       		.uleb128 0xa
 5165 1378 FA020000 		.4byte	.LVL207
 5166 137c 6C1C0000 		.4byte	0x1c6c
 5167 1380 90130000 		.4byte	0x1390
 5168 1384 0B       		.uleb128 0xb
 5169 1385 01       		.uleb128 0x1
 5170 1386 50       		.byte	0x50
 5171 1387 01       		.uleb128 0x1
 5172 1388 3A       		.byte	0x3a
 5173 1389 0B       		.uleb128 0xb
 5174 138a 01       		.uleb128 0x1
 5175 138b 51       		.byte	0x51
 5176 138c 02       		.uleb128 0x2
 5177 138d 09       		.byte	0x9
 5178 138e FF       		.byte	0xff
 5179 138f 00       		.byte	0
 5180 1390 0A       		.uleb128 0xa
 5181 1391 02030000 		.4byte	.LVL208
 5182 1395 6C1C0000 		.4byte	0x1c6c
 5183 1399 A9130000 		.4byte	0x13a9
 5184 139d 0B       		.uleb128 0xb
 5185 139e 01       		.uleb128 0x1
 5186 139f 50       		.byte	0x50
 5187 13a0 01       		.uleb128 0x1
 5188 13a1 3A       		.byte	0x3a
 5189 13a2 0B       		.uleb128 0xb
 5190 13a3 01       		.uleb128 0x1
 5191 13a4 51       		.byte	0x51
 5192 13a5 02       		.uleb128 0x2
 5193 13a6 08       		.byte	0x8
 5194 13a7 60       		.byte	0x60
 5195 13a8 00       		.byte	0
 5196 13a9 0A       		.uleb128 0xa
 5197 13aa 0A030000 		.4byte	.LVL209
 5198 13ae 6C1C0000 		.4byte	0x1c6c
ARM GAS  C:\Users\8523~1\AppData\Local\Temp\ccJE8vL2.s 			page 118


 5199 13b2 C2130000 		.4byte	0x13c2
 5200 13b6 0B       		.uleb128 0xb
 5201 13b7 01       		.uleb128 0x1
 5202 13b8 50       		.byte	0x50
 5203 13b9 01       		.uleb128 0x1
 5204 13ba 3A       		.byte	0x3a
 5205 13bb 0B       		.uleb128 0xb
 5206 13bc 01       		.uleb128 0x1
 5207 13bd 51       		.byte	0x51
 5208 13be 02       		.uleb128 0x2
 5209 13bf 08       		.byte	0x8
 5210 13c0 4C       		.byte	0x4c
 5211 13c1 00       		.byte	0
 5212 13c2 0A       		.uleb128 0xa
 5213 13c3 12030000 		.4byte	.LVL210
 5214 13c7 6C1C0000 		.4byte	0x1c6c
 5215 13cb DB130000 		.4byte	0x13db
 5216 13cf 0B       		.uleb128 0xb
 5217 13d0 01       		.uleb128 0x1
 5218 13d1 50       		.byte	0x50
 5219 13d2 01       		.uleb128 0x1
 5220 13d3 3A       		.byte	0x3a
 5221 13d4 0B       		.uleb128 0xb
 5222 13d5 01       		.uleb128 0x1
 5223 13d6 51       		.byte	0x51
 5224 13d7 02       		.uleb128 0x2
 5225 13d8 08       		.byte	0x8
 5226 13d9 40       		.byte	0x40
 5227 13da 00       		.byte	0
 5228 13db 0A       		.uleb128 0xa
 5229 13dc 1A030000 		.4byte	.LVL211
 5230 13e0 6C1C0000 		.4byte	0x1c6c
 5231 13e4 F4130000 		.4byte	0x13f4
 5232 13e8 0B       		.uleb128 0xb
 5233 13e9 01       		.uleb128 0x1
 5234 13ea 50       		.byte	0x50
 5235 13eb 01       		.uleb128 0x1
 5236 13ec 3A       		.byte	0x3a
 5237 13ed 0B       		.uleb128 0xb
 5238 13ee 01       		.uleb128 0x1
 5239 13ef 51       		.byte	0x51
 5240 13f0 02       		.uleb128 0x2
 5241 13f1 09       		.byte	0x9
 5242 13f2 FF       		.byte	0xff
 5243 13f3 00       		.byte	0
 5244 13f4 0A       		.uleb128 0xa
 5245 13f5 22030000 		.4byte	.LVL212
 5246 13f9 6C1C0000 		.4byte	0x1c6c
 5247 13fd 0D140000 		.4byte	0x140d
 5248 1401 0B       		.uleb128 0xb
 5249 1402 01       		.uleb128 0x1
 5250 1403 50       		.byte	0x50
 5251 1404 01       		.uleb128 0x1
 5252 1405 3A       		.byte	0x3a
 5253 1406 0B       		.uleb128 0xb
 5254 1407 01       		.uleb128 0x1
 5255 1408 51       		.byte	0x51
ARM GAS  C:\Users\8523~1\AppData\Local\Temp\ccJE8vL2.s 			page 119


 5256 1409 02       		.uleb128 0x2
 5257 140a 08       		.byte	0x8
 5258 140b 60       		.byte	0x60
 5259 140c 00       		.byte	0
 5260 140d 0A       		.uleb128 0xa
 5261 140e 2A030000 		.4byte	.LVL213
 5262 1412 6C1C0000 		.4byte	0x1c6c
 5263 1416 26140000 		.4byte	0x1426
 5264 141a 0B       		.uleb128 0xb
 5265 141b 01       		.uleb128 0x1
 5266 141c 50       		.byte	0x50
 5267 141d 01       		.uleb128 0x1
 5268 141e 3A       		.byte	0x3a
 5269 141f 0B       		.uleb128 0xb
 5270 1420 01       		.uleb128 0x1
 5271 1421 51       		.byte	0x51
 5272 1422 02       		.uleb128 0x2
 5273 1423 08       		.byte	0x8
 5274 1424 4C       		.byte	0x4c
 5275 1425 00       		.byte	0
 5276 1426 0A       		.uleb128 0xa
 5277 1427 32030000 		.4byte	.LVL214
 5278 142b 6C1C0000 		.4byte	0x1c6c
 5279 142f 3F140000 		.4byte	0x143f
 5280 1433 0B       		.uleb128 0xb
 5281 1434 01       		.uleb128 0x1
 5282 1435 50       		.byte	0x50
 5283 1436 01       		.uleb128 0x1
 5284 1437 3A       		.byte	0x3a
 5285 1438 0B       		.uleb128 0xb
 5286 1439 01       		.uleb128 0x1
 5287 143a 51       		.byte	0x51
 5288 143b 02       		.uleb128 0x2
 5289 143c 08       		.byte	0x8
 5290 143d 40       		.byte	0x40
 5291 143e 00       		.byte	0
 5292 143f 0A       		.uleb128 0xa
 5293 1440 38030000 		.4byte	.LVL215
 5294 1444 081C0000 		.4byte	0x1c08
 5295 1448 53140000 		.4byte	0x1453
 5296 144c 0B       		.uleb128 0xb
 5297 144d 01       		.uleb128 0x1
 5298 144e 50       		.byte	0x50
 5299 144f 02       		.uleb128 0x2
 5300 1450 08       		.byte	0x8
 5301 1451 32       		.byte	0x32
 5302 1452 00       		.byte	0
 5303 1453 0A       		.uleb128 0xa
 5304 1454 40030000 		.4byte	.LVL216
 5305 1458 6C1C0000 		.4byte	0x1c6c
 5306 145c 6D140000 		.4byte	0x146d
 5307 1460 0B       		.uleb128 0xb
 5308 1461 01       		.uleb128 0x1
 5309 1462 50       		.byte	0x50
 5310 1463 02       		.uleb128 0x2
 5311 1464 08       		.byte	0x8
 5312 1465 FA       		.byte	0xfa
ARM GAS  C:\Users\8523~1\AppData\Local\Temp\ccJE8vL2.s 			page 120


 5313 1466 0B       		.uleb128 0xb
 5314 1467 01       		.uleb128 0x1
 5315 1468 51       		.byte	0x51
 5316 1469 02       		.uleb128 0x2
 5317 146a 08       		.byte	0x8
 5318 146b 60       		.byte	0x60
 5319 146c 00       		.byte	0
 5320 146d 0A       		.uleb128 0xa
 5321 146e 48030000 		.4byte	.LVL217
 5322 1472 6C1C0000 		.4byte	0x1c6c
 5323 1476 87140000 		.4byte	0x1487
 5324 147a 0B       		.uleb128 0xb
 5325 147b 01       		.uleb128 0x1
 5326 147c 50       		.byte	0x50
 5327 147d 02       		.uleb128 0x2
 5328 147e 08       		.byte	0x8
 5329 147f 64       		.byte	0x64
 5330 1480 0B       		.uleb128 0xb
 5331 1481 01       		.uleb128 0x1
 5332 1482 51       		.byte	0x51
 5333 1483 02       		.uleb128 0x2
 5334 1484 08       		.byte	0x8
 5335 1485 4C       		.byte	0x4c
 5336 1486 00       		.byte	0
 5337 1487 0A       		.uleb128 0xa
 5338 1488 50030000 		.4byte	.LVL218
 5339 148c 6C1C0000 		.4byte	0x1c6c
 5340 1490 A1140000 		.4byte	0x14a1
 5341 1494 0B       		.uleb128 0xb
 5342 1495 01       		.uleb128 0x1
 5343 1496 50       		.byte	0x50
 5344 1497 02       		.uleb128 0x2
 5345 1498 08       		.byte	0x8
 5346 1499 96       		.byte	0x96
 5347 149a 0B       		.uleb128 0xb
 5348 149b 01       		.uleb128 0x1
 5349 149c 51       		.byte	0x51
 5350 149d 02       		.uleb128 0x2
 5351 149e 08       		.byte	0x8
 5352 149f 48       		.byte	0x48
 5353 14a0 00       		.byte	0
 5354 14a1 0A       		.uleb128 0xa
 5355 14a2 58030000 		.4byte	.LVL219
 5356 14a6 6C1C0000 		.4byte	0x1c6c
 5357 14aa BB140000 		.4byte	0x14bb
 5358 14ae 0B       		.uleb128 0xb
 5359 14af 01       		.uleb128 0x1
 5360 14b0 50       		.byte	0x50
 5361 14b1 02       		.uleb128 0x2
 5362 14b2 08       		.byte	0x8
 5363 14b3 FA       		.byte	0xfa
 5364 14b4 0B       		.uleb128 0xb
 5365 14b5 01       		.uleb128 0x1
 5366 14b6 51       		.byte	0x51
 5367 14b7 02       		.uleb128 0x2
 5368 14b8 09       		.byte	0x9
 5369 14b9 8F       		.byte	0x8f
ARM GAS  C:\Users\8523~1\AppData\Local\Temp\ccJE8vL2.s 			page 121


 5370 14ba 00       		.byte	0
 5371 14bb 0A       		.uleb128 0xa
 5372 14bc 60030000 		.4byte	.LVL220
 5373 14c0 6C1C0000 		.4byte	0x1c6c
 5374 14c4 D5140000 		.4byte	0x14d5
 5375 14c8 0B       		.uleb128 0xb
 5376 14c9 01       		.uleb128 0x1
 5377 14ca 50       		.byte	0x50
 5378 14cb 02       		.uleb128 0x2
 5379 14cc 08       		.byte	0x8
 5380 14cd FA       		.byte	0xfa
 5381 14ce 0B       		.uleb128 0xb
 5382 14cf 01       		.uleb128 0x1
 5383 14d0 51       		.byte	0x51
 5384 14d1 02       		.uleb128 0x2
 5385 14d2 09       		.byte	0x9
 5386 14d3 E3       		.byte	0xe3
 5387 14d4 00       		.byte	0
 5388 14d5 0A       		.uleb128 0xa
 5389 14d6 68030000 		.4byte	.LVL221
 5390 14da 6C1C0000 		.4byte	0x1c6c
 5391 14de EF140000 		.4byte	0x14ef
 5392 14e2 0B       		.uleb128 0xb
 5393 14e3 01       		.uleb128 0x1
 5394 14e4 50       		.byte	0x50
 5395 14e5 02       		.uleb128 0x2
 5396 14e6 08       		.byte	0x8
 5397 14e7 FA       		.byte	0xfa
 5398 14e8 0B       		.uleb128 0xb
 5399 14e9 01       		.uleb128 0x1
 5400 14ea 51       		.byte	0x51
 5401 14eb 02       		.uleb128 0x2
 5402 14ec 09       		.byte	0x9
 5403 14ed BF       		.byte	0xbf
 5404 14ee 00       		.byte	0
 5405 14ef 0A       		.uleb128 0xa
 5406 14f0 70030000 		.4byte	.LVL222
 5407 14f4 6C1C0000 		.4byte	0x1c6c
 5408 14f8 09150000 		.4byte	0x1509
 5409 14fc 0B       		.uleb128 0xb
 5410 14fd 01       		.uleb128 0x1
 5411 14fe 50       		.byte	0x50
 5412 14ff 02       		.uleb128 0x2
 5413 1500 08       		.byte	0x8
 5414 1501 FA       		.byte	0xfa
 5415 1502 0B       		.uleb128 0xb
 5416 1503 01       		.uleb128 0x1
 5417 1504 51       		.byte	0x51
 5418 1505 02       		.uleb128 0x2
 5419 1506 08       		.byte	0x8
 5420 1507 40       		.byte	0x40
 5421 1508 00       		.byte	0
 5422 1509 0A       		.uleb128 0xa
 5423 150a 78030000 		.4byte	.LVL223
 5424 150e 6C1C0000 		.4byte	0x1c6c
 5425 1512 23150000 		.4byte	0x1523
 5426 1516 0B       		.uleb128 0xb
ARM GAS  C:\Users\8523~1\AppData\Local\Temp\ccJE8vL2.s 			page 122


 5427 1517 01       		.uleb128 0x1
 5428 1518 50       		.byte	0x50
 5429 1519 02       		.uleb128 0x2
 5430 151a 08       		.byte	0x8
 5431 151b FA       		.byte	0xfa
 5432 151c 0B       		.uleb128 0xb
 5433 151d 01       		.uleb128 0x1
 5434 151e 51       		.byte	0x51
 5435 151f 02       		.uleb128 0x2
 5436 1520 08       		.byte	0x8
 5437 1521 39       		.byte	0x39
 5438 1522 00       		.byte	0
 5439 1523 0A       		.uleb128 0xa
 5440 1524 80030000 		.4byte	.LVL224
 5441 1528 6C1C0000 		.4byte	0x1c6c
 5442 152c 3D150000 		.4byte	0x153d
 5443 1530 0B       		.uleb128 0xb
 5444 1531 01       		.uleb128 0x1
 5445 1532 50       		.byte	0x50
 5446 1533 02       		.uleb128 0x2
 5447 1534 08       		.byte	0x8
 5448 1535 FA       		.byte	0xfa
 5449 1536 0B       		.uleb128 0xb
 5450 1537 01       		.uleb128 0x1
 5451 1538 51       		.byte	0x51
 5452 1539 02       		.uleb128 0x2
 5453 153a 08       		.byte	0x8
 5454 153b 30       		.byte	0x30
 5455 153c 00       		.byte	0
 5456 153d 0A       		.uleb128 0xa
 5457 153e 88030000 		.4byte	.LVL225
 5458 1542 6C1C0000 		.4byte	0x1c6c
 5459 1546 57150000 		.4byte	0x1557
 5460 154a 0B       		.uleb128 0xb
 5461 154b 01       		.uleb128 0x1
 5462 154c 50       		.byte	0x50
 5463 154d 02       		.uleb128 0x2
 5464 154e 08       		.byte	0x8
 5465 154f FA       		.byte	0xfa
 5466 1550 0B       		.uleb128 0xb
 5467 1551 01       		.uleb128 0x1
 5468 1552 51       		.byte	0x51
 5469 1553 02       		.uleb128 0x2
 5470 1554 09       		.byte	0x9
 5471 1555 E3       		.byte	0xe3
 5472 1556 00       		.byte	0
 5473 1557 0A       		.uleb128 0xa
 5474 1558 90030000 		.4byte	.LVL226
 5475 155c 6C1C0000 		.4byte	0x1c6c
 5476 1560 71150000 		.4byte	0x1571
 5477 1564 0B       		.uleb128 0xb
 5478 1565 01       		.uleb128 0x1
 5479 1566 50       		.byte	0x50
 5480 1567 02       		.uleb128 0x2
 5481 1568 08       		.byte	0x8
 5482 1569 FA       		.byte	0xfa
 5483 156a 0B       		.uleb128 0xb
ARM GAS  C:\Users\8523~1\AppData\Local\Temp\ccJE8vL2.s 			page 123


 5484 156b 01       		.uleb128 0x1
 5485 156c 51       		.byte	0x51
 5486 156d 02       		.uleb128 0x2
 5487 156e 08       		.byte	0x8
 5488 156f 39       		.byte	0x39
 5489 1570 00       		.byte	0
 5490 1571 0A       		.uleb128 0xa
 5491 1572 98030000 		.4byte	.LVL227
 5492 1576 6C1C0000 		.4byte	0x1c6c
 5493 157a 8B150000 		.4byte	0x158b
 5494 157e 0B       		.uleb128 0xb
 5495 157f 01       		.uleb128 0x1
 5496 1580 50       		.byte	0x50
 5497 1581 02       		.uleb128 0x2
 5498 1582 08       		.byte	0x8
 5499 1583 FA       		.byte	0xfa
 5500 1584 0B       		.uleb128 0xb
 5501 1585 01       		.uleb128 0x1
 5502 1586 51       		.byte	0x51
 5503 1587 02       		.uleb128 0x2
 5504 1588 09       		.byte	0x9
 5505 1589 E3       		.byte	0xe3
 5506 158a 00       		.byte	0
 5507 158b 0A       		.uleb128 0xa
 5508 158c A0030000 		.4byte	.LVL228
 5509 1590 6C1C0000 		.4byte	0x1c6c
 5510 1594 A5150000 		.4byte	0x15a5
 5511 1598 0B       		.uleb128 0xb
 5512 1599 01       		.uleb128 0x1
 5513 159a 50       		.byte	0x50
 5514 159b 02       		.uleb128 0x2
 5515 159c 08       		.byte	0x8
 5516 159d FA       		.byte	0xfa
 5517 159e 0B       		.uleb128 0xb
 5518 159f 01       		.uleb128 0x1
 5519 15a0 51       		.byte	0x51
 5520 15a1 02       		.uleb128 0x2
 5521 15a2 09       		.byte	0x9
 5522 15a3 98       		.byte	0x98
 5523 15a4 00       		.byte	0
 5524 15a5 0A       		.uleb128 0xa
 5525 15a6 A8030000 		.4byte	.LVL229
 5526 15aa 6C1C0000 		.4byte	0x1c6c
 5527 15ae BF150000 		.4byte	0x15bf
 5528 15b2 0B       		.uleb128 0xb
 5529 15b3 01       		.uleb128 0x1
 5530 15b4 50       		.byte	0x50
 5531 15b5 02       		.uleb128 0x2
 5532 15b6 08       		.byte	0x8
 5533 15b7 FA       		.byte	0xfa
 5534 15b8 0B       		.uleb128 0xb
 5535 15b9 01       		.uleb128 0x1
 5536 15ba 51       		.byte	0x51
 5537 15bb 02       		.uleb128 0x2
 5538 15bc 09       		.byte	0x9
 5539 15bd 80       		.byte	0x80
 5540 15be 00       		.byte	0
ARM GAS  C:\Users\8523~1\AppData\Local\Temp\ccJE8vL2.s 			page 124


 5541 15bf 0A       		.uleb128 0xa
 5542 15c0 B2030000 		.4byte	.LVL230
 5543 15c4 6C1C0000 		.4byte	0x1c6c
 5544 15c8 DA150000 		.4byte	0x15da
 5545 15cc 0B       		.uleb128 0xb
 5546 15cd 01       		.uleb128 0x1
 5547 15ce 50       		.byte	0x50
 5548 15cf 03       		.uleb128 0x3
 5549 15d0 0A       		.byte	0xa
 5550 15d1 9001     		.2byte	0x190
 5551 15d3 0B       		.uleb128 0xb
 5552 15d4 01       		.uleb128 0x1
 5553 15d5 51       		.byte	0x51
 5554 15d6 02       		.uleb128 0x2
 5555 15d7 08       		.byte	0x8
 5556 15d8 55       		.byte	0x55
 5557 15d9 00       		.byte	0
 5558 15da 0A       		.uleb128 0xa
 5559 15db BA030000 		.4byte	.LVL231
 5560 15df 6C1C0000 		.4byte	0x1c6c
 5561 15e3 F4150000 		.4byte	0x15f4
 5562 15e7 0B       		.uleb128 0xb
 5563 15e8 01       		.uleb128 0x1
 5564 15e9 50       		.byte	0x50
 5565 15ea 02       		.uleb128 0x2
 5566 15eb 08       		.byte	0x8
 5567 15ec 64       		.byte	0x64
 5568 15ed 0B       		.uleb128 0xb
 5569 15ee 01       		.uleb128 0x1
 5570 15ef 51       		.byte	0x51
 5571 15f0 02       		.uleb128 0x2
 5572 15f1 08       		.byte	0x8
 5573 15f2 4C       		.byte	0x4c
 5574 15f3 00       		.byte	0
 5575 15f4 0A       		.uleb128 0xa
 5576 15f5 C2030000 		.4byte	.LVL232
 5577 15f9 6C1C0000 		.4byte	0x1c6c
 5578 15fd 0E160000 		.4byte	0x160e
 5579 1601 0B       		.uleb128 0xb
 5580 1602 01       		.uleb128 0x1
 5581 1603 50       		.byte	0x50
 5582 1604 02       		.uleb128 0x2
 5583 1605 08       		.byte	0x8
 5584 1606 FA       		.byte	0xfa
 5585 1607 0B       		.uleb128 0xb
 5586 1608 01       		.uleb128 0x1
 5587 1609 51       		.byte	0x51
 5588 160a 02       		.uleb128 0x2
 5589 160b 08       		.byte	0x8
 5590 160c 55       		.byte	0x55
 5591 160d 00       		.byte	0
 5592 160e 0A       		.uleb128 0xa
 5593 160f CA030000 		.4byte	.LVL233
 5594 1613 6C1C0000 		.4byte	0x1c6c
 5595 1617 28160000 		.4byte	0x1628
 5596 161b 0B       		.uleb128 0xb
 5597 161c 01       		.uleb128 0x1
ARM GAS  C:\Users\8523~1\AppData\Local\Temp\ccJE8vL2.s 			page 125


 5598 161d 50       		.byte	0x50
 5599 161e 02       		.uleb128 0x2
 5600 161f 08       		.byte	0x8
 5601 1620 FA       		.byte	0xfa
 5602 1621 0B       		.uleb128 0xb
 5603 1622 01       		.uleb128 0x1
 5604 1623 51       		.byte	0x51
 5605 1624 02       		.uleb128 0x2
 5606 1625 09       		.byte	0x9
 5607 1626 D6       		.byte	0xd6
 5608 1627 00       		.byte	0
 5609 1628 0A       		.uleb128 0xa
 5610 1629 D2030000 		.4byte	.LVL234
 5611 162d 6C1C0000 		.4byte	0x1c6c
 5612 1631 41160000 		.4byte	0x1641
 5613 1635 0B       		.uleb128 0xb
 5614 1636 01       		.uleb128 0x1
 5615 1637 50       		.byte	0x50
 5616 1638 01       		.uleb128 0x1
 5617 1639 3A       		.byte	0x3a
 5618 163a 0B       		.uleb128 0xb
 5619 163b 01       		.uleb128 0x1
 5620 163c 51       		.byte	0x51
 5621 163d 02       		.uleb128 0x2
 5622 163e 09       		.byte	0x9
 5623 163f E3       		.byte	0xe3
 5624 1640 00       		.byte	0
 5625 1641 0A       		.uleb128 0xa
 5626 1642 DA030000 		.4byte	.LVL235
 5627 1646 6C1C0000 		.4byte	0x1c6c
 5628 164a 5A160000 		.4byte	0x165a
 5629 164e 0B       		.uleb128 0xb
 5630 164f 01       		.uleb128 0x1
 5631 1650 50       		.byte	0x50
 5632 1651 01       		.uleb128 0x1
 5633 1652 3A       		.byte	0x3a
 5634 1653 0B       		.uleb128 0xb
 5635 1654 01       		.uleb128 0x1
 5636 1655 51       		.byte	0x51
 5637 1656 02       		.uleb128 0x2
 5638 1657 09       		.byte	0x9
 5639 1658 98       		.byte	0x98
 5640 1659 00       		.byte	0
 5641 165a 0A       		.uleb128 0xa
 5642 165b E2030000 		.4byte	.LVL236
 5643 165f 6C1C0000 		.4byte	0x1c6c
 5644 1663 73160000 		.4byte	0x1673
 5645 1667 0B       		.uleb128 0xb
 5646 1668 01       		.uleb128 0x1
 5647 1669 50       		.byte	0x50
 5648 166a 01       		.uleb128 0x1
 5649 166b 3A       		.byte	0x3a
 5650 166c 0B       		.uleb128 0xb
 5651 166d 01       		.uleb128 0x1
 5652 166e 51       		.byte	0x51
 5653 166f 02       		.uleb128 0x2
 5654 1670 08       		.byte	0x8
ARM GAS  C:\Users\8523~1\AppData\Local\Temp\ccJE8vL2.s 			page 126


 5655 1671 72       		.byte	0x72
 5656 1672 00       		.byte	0
 5657 1673 0A       		.uleb128 0xa
 5658 1674 EA030000 		.4byte	.LVL237
 5659 1678 6C1C0000 		.4byte	0x1c6c
 5660 167c 8C160000 		.4byte	0x168c
 5661 1680 0B       		.uleb128 0xb
 5662 1681 01       		.uleb128 0x1
 5663 1682 50       		.byte	0x50
 5664 1683 01       		.uleb128 0x1
 5665 1684 3A       		.byte	0x3a
 5666 1685 0B       		.uleb128 0xb
 5667 1686 01       		.uleb128 0x1
 5668 1687 51       		.byte	0x51
 5669 1688 02       		.uleb128 0x2
 5670 1689 08       		.byte	0x8
 5671 168a 60       		.byte	0x60
 5672 168b 00       		.byte	0
 5673 168c 0A       		.uleb128 0xa
 5674 168d F2030000 		.4byte	.LVL238
 5675 1691 6C1C0000 		.4byte	0x1c6c
 5676 1695 A5160000 		.4byte	0x16a5
 5677 1699 0B       		.uleb128 0xb
 5678 169a 01       		.uleb128 0x1
 5679 169b 50       		.byte	0x50
 5680 169c 01       		.uleb128 0x1
 5681 169d 3A       		.byte	0x3a
 5682 169e 0B       		.uleb128 0xb
 5683 169f 01       		.uleb128 0x1
 5684 16a0 51       		.byte	0x51
 5685 16a1 02       		.uleb128 0x2
 5686 16a2 09       		.byte	0x9
 5687 16a3 E3       		.byte	0xe3
 5688 16a4 00       		.byte	0
 5689 16a5 0A       		.uleb128 0xa
 5690 16a6 FA030000 		.4byte	.LVL239
 5691 16aa 6C1C0000 		.4byte	0x1c6c
 5692 16ae BE160000 		.4byte	0x16be
 5693 16b2 0B       		.uleb128 0xb
 5694 16b3 01       		.uleb128 0x1
 5695 16b4 50       		.byte	0x50
 5696 16b5 01       		.uleb128 0x1
 5697 16b6 3A       		.byte	0x3a
 5698 16b7 0B       		.uleb128 0xb
 5699 16b8 01       		.uleb128 0x1
 5700 16b9 51       		.byte	0x51
 5701 16ba 02       		.uleb128 0x2
 5702 16bb 09       		.byte	0x9
 5703 16bc 98       		.byte	0x98
 5704 16bd 00       		.byte	0
 5705 16be 0A       		.uleb128 0xa
 5706 16bf 02040000 		.4byte	.LVL240
 5707 16c3 6C1C0000 		.4byte	0x1c6c
 5708 16c7 D7160000 		.4byte	0x16d7
 5709 16cb 0B       		.uleb128 0xb
 5710 16cc 01       		.uleb128 0x1
 5711 16cd 50       		.byte	0x50
ARM GAS  C:\Users\8523~1\AppData\Local\Temp\ccJE8vL2.s 			page 127


 5712 16ce 01       		.uleb128 0x1
 5713 16cf 3A       		.byte	0x3a
 5714 16d0 0B       		.uleb128 0xb
 5715 16d1 01       		.uleb128 0x1
 5716 16d2 51       		.byte	0x51
 5717 16d3 02       		.uleb128 0x2
 5718 16d4 08       		.byte	0x8
 5719 16d5 72       		.byte	0x72
 5720 16d6 00       		.byte	0
 5721 16d7 0A       		.uleb128 0xa
 5722 16d8 0A040000 		.4byte	.LVL241
 5723 16dc 6C1C0000 		.4byte	0x1c6c
 5724 16e0 F0160000 		.4byte	0x16f0
 5725 16e4 0B       		.uleb128 0xb
 5726 16e5 01       		.uleb128 0x1
 5727 16e6 50       		.byte	0x50
 5728 16e7 01       		.uleb128 0x1
 5729 16e8 3A       		.byte	0x3a
 5730 16e9 0B       		.uleb128 0xb
 5731 16ea 01       		.uleb128 0x1
 5732 16eb 51       		.byte	0x51
 5733 16ec 02       		.uleb128 0x2
 5734 16ed 08       		.byte	0x8
 5735 16ee 60       		.byte	0x60
 5736 16ef 00       		.byte	0
 5737 16f0 0A       		.uleb128 0xa
 5738 16f1 12040000 		.4byte	.LVL242
 5739 16f5 6C1C0000 		.4byte	0x1c6c
 5740 16f9 09170000 		.4byte	0x1709
 5741 16fd 0B       		.uleb128 0xb
 5742 16fe 01       		.uleb128 0x1
 5743 16ff 50       		.byte	0x50
 5744 1700 01       		.uleb128 0x1
 5745 1701 3A       		.byte	0x3a
 5746 1702 0B       		.uleb128 0xb
 5747 1703 01       		.uleb128 0x1
 5748 1704 51       		.byte	0x51
 5749 1705 02       		.uleb128 0x2
 5750 1706 09       		.byte	0x9
 5751 1707 E3       		.byte	0xe3
 5752 1708 00       		.byte	0
 5753 1709 0A       		.uleb128 0xa
 5754 170a 1A040000 		.4byte	.LVL243
 5755 170e 6C1C0000 		.4byte	0x1c6c
 5756 1712 22170000 		.4byte	0x1722
 5757 1716 0B       		.uleb128 0xb
 5758 1717 01       		.uleb128 0x1
 5759 1718 50       		.byte	0x50
 5760 1719 01       		.uleb128 0x1
 5761 171a 3A       		.byte	0x3a
 5762 171b 0B       		.uleb128 0xb
 5763 171c 01       		.uleb128 0x1
 5764 171d 51       		.byte	0x51
 5765 171e 02       		.uleb128 0x2
 5766 171f 09       		.byte	0x9
 5767 1720 98       		.byte	0x98
 5768 1721 00       		.byte	0
ARM GAS  C:\Users\8523~1\AppData\Local\Temp\ccJE8vL2.s 			page 128


 5769 1722 0A       		.uleb128 0xa
 5770 1723 22040000 		.4byte	.LVL244
 5771 1727 6C1C0000 		.4byte	0x1c6c
 5772 172b 3B170000 		.4byte	0x173b
 5773 172f 0B       		.uleb128 0xb
 5774 1730 01       		.uleb128 0x1
 5775 1731 50       		.byte	0x50
 5776 1732 01       		.uleb128 0x1
 5777 1733 3A       		.byte	0x3a
 5778 1734 0B       		.uleb128 0xb
 5779 1735 01       		.uleb128 0x1
 5780 1736 51       		.byte	0x51
 5781 1737 02       		.uleb128 0x2
 5782 1738 08       		.byte	0x8
 5783 1739 72       		.byte	0x72
 5784 173a 00       		.byte	0
 5785 173b 0A       		.uleb128 0xa
 5786 173c 2A040000 		.4byte	.LVL245
 5787 1740 6C1C0000 		.4byte	0x1c6c
 5788 1744 54170000 		.4byte	0x1754
 5789 1748 0B       		.uleb128 0xb
 5790 1749 01       		.uleb128 0x1
 5791 174a 50       		.byte	0x50
 5792 174b 01       		.uleb128 0x1
 5793 174c 3A       		.byte	0x3a
 5794 174d 0B       		.uleb128 0xb
 5795 174e 01       		.uleb128 0x1
 5796 174f 51       		.byte	0x51
 5797 1750 02       		.uleb128 0x2
 5798 1751 08       		.byte	0x8
 5799 1752 60       		.byte	0x60
 5800 1753 00       		.byte	0
 5801 1754 0A       		.uleb128 0xa
 5802 1755 32040000 		.4byte	.LVL246
 5803 1759 6C1C0000 		.4byte	0x1c6c
 5804 175d 6D170000 		.4byte	0x176d
 5805 1761 0B       		.uleb128 0xb
 5806 1762 01       		.uleb128 0x1
 5807 1763 50       		.byte	0x50
 5808 1764 01       		.uleb128 0x1
 5809 1765 3A       		.byte	0x3a
 5810 1766 0B       		.uleb128 0xb
 5811 1767 01       		.uleb128 0x1
 5812 1768 51       		.byte	0x51
 5813 1769 02       		.uleb128 0x2
 5814 176a 09       		.byte	0x9
 5815 176b E3       		.byte	0xe3
 5816 176c 00       		.byte	0
 5817 176d 0A       		.uleb128 0xa
 5818 176e 3A040000 		.4byte	.LVL247
 5819 1772 6C1C0000 		.4byte	0x1c6c
 5820 1776 86170000 		.4byte	0x1786
 5821 177a 0B       		.uleb128 0xb
 5822 177b 01       		.uleb128 0x1
 5823 177c 50       		.byte	0x50
 5824 177d 01       		.uleb128 0x1
 5825 177e 3A       		.byte	0x3a
ARM GAS  C:\Users\8523~1\AppData\Local\Temp\ccJE8vL2.s 			page 129


 5826 177f 0B       		.uleb128 0xb
 5827 1780 01       		.uleb128 0x1
 5828 1781 51       		.byte	0x51
 5829 1782 02       		.uleb128 0x2
 5830 1783 09       		.byte	0x9
 5831 1784 98       		.byte	0x98
 5832 1785 00       		.byte	0
 5833 1786 0A       		.uleb128 0xa
 5834 1787 42040000 		.4byte	.LVL248
 5835 178b 6C1C0000 		.4byte	0x1c6c
 5836 178f 9F170000 		.4byte	0x179f
 5837 1793 0B       		.uleb128 0xb
 5838 1794 01       		.uleb128 0x1
 5839 1795 50       		.byte	0x50
 5840 1796 01       		.uleb128 0x1
 5841 1797 3A       		.byte	0x3a
 5842 1798 0B       		.uleb128 0xb
 5843 1799 01       		.uleb128 0x1
 5844 179a 51       		.byte	0x51
 5845 179b 02       		.uleb128 0x2
 5846 179c 08       		.byte	0x8
 5847 179d 72       		.byte	0x72
 5848 179e 00       		.byte	0
 5849 179f 0A       		.uleb128 0xa
 5850 17a0 48040000 		.4byte	.LVL249
 5851 17a4 081C0000 		.4byte	0x1c08
 5852 17a8 B3170000 		.4byte	0x17b3
 5853 17ac 0B       		.uleb128 0xb
 5854 17ad 01       		.uleb128 0x1
 5855 17ae 50       		.byte	0x50
 5856 17af 02       		.uleb128 0x2
 5857 17b0 08       		.byte	0x8
 5858 17b1 64       		.byte	0x64
 5859 17b2 00       		.byte	0
 5860 17b3 0A       		.uleb128 0xa
 5861 17b4 50040000 		.4byte	.LVL250
 5862 17b8 6C1C0000 		.4byte	0x1c6c
 5863 17bc CC170000 		.4byte	0x17cc
 5864 17c0 0B       		.uleb128 0xb
 5865 17c1 01       		.uleb128 0x1
 5866 17c2 50       		.byte	0x50
 5867 17c3 01       		.uleb128 0x1
 5868 17c4 3A       		.byte	0x3a
 5869 17c5 0B       		.uleb128 0xb
 5870 17c6 01       		.uleb128 0x1
 5871 17c7 51       		.byte	0x51
 5872 17c8 02       		.uleb128 0x2
 5873 17c9 09       		.byte	0x9
 5874 17ca FF       		.byte	0xff
 5875 17cb 00       		.byte	0
 5876 17cc 0A       		.uleb128 0xa
 5877 17cd 58040000 		.4byte	.LVL251
 5878 17d1 6C1C0000 		.4byte	0x1c6c
 5879 17d5 E5170000 		.4byte	0x17e5
 5880 17d9 0B       		.uleb128 0xb
 5881 17da 01       		.uleb128 0x1
 5882 17db 50       		.byte	0x50
ARM GAS  C:\Users\8523~1\AppData\Local\Temp\ccJE8vL2.s 			page 130


 5883 17dc 01       		.uleb128 0x1
 5884 17dd 3A       		.byte	0x3a
 5885 17de 0B       		.uleb128 0xb
 5886 17df 01       		.uleb128 0x1
 5887 17e0 51       		.byte	0x51
 5888 17e1 02       		.uleb128 0x2
 5889 17e2 09       		.byte	0x9
 5890 17e3 AA       		.byte	0xaa
 5891 17e4 00       		.byte	0
 5892 17e5 0A       		.uleb128 0xa
 5893 17e6 60040000 		.4byte	.LVL252
 5894 17ea 6C1C0000 		.4byte	0x1c6c
 5895 17ee FE170000 		.4byte	0x17fe
 5896 17f2 0B       		.uleb128 0xb
 5897 17f3 01       		.uleb128 0x1
 5898 17f4 50       		.byte	0x50
 5899 17f5 01       		.uleb128 0x1
 5900 17f6 3A       		.byte	0x3a
 5901 17f7 0B       		.uleb128 0xb
 5902 17f8 01       		.uleb128 0x1
 5903 17f9 51       		.byte	0x51
 5904 17fa 02       		.uleb128 0x2
 5905 17fb 09       		.byte	0x9
 5906 17fc 80       		.byte	0x80
 5907 17fd 00       		.byte	0
 5908 17fe 0A       		.uleb128 0xa
 5909 17ff 68040000 		.4byte	.LVL253
 5910 1803 6C1C0000 		.4byte	0x1c6c
 5911 1807 17180000 		.4byte	0x1817
 5912 180b 0B       		.uleb128 0xb
 5913 180c 01       		.uleb128 0x1
 5914 180d 50       		.byte	0x50
 5915 180e 01       		.uleb128 0x1
 5916 180f 3A       		.byte	0x3a
 5917 1810 0B       		.uleb128 0xb
 5918 1811 01       		.uleb128 0x1
 5919 1812 51       		.byte	0x51
 5920 1813 02       		.uleb128 0x2
 5921 1814 08       		.byte	0x8
 5922 1815 6B       		.byte	0x6b
 5923 1816 00       		.byte	0
 5924 1817 0A       		.uleb128 0xa
 5925 1818 70040000 		.4byte	.LVL254
 5926 181c 6C1C0000 		.4byte	0x1c6c
 5927 1820 30180000 		.4byte	0x1830
 5928 1824 0B       		.uleb128 0xb
 5929 1825 01       		.uleb128 0x1
 5930 1826 50       		.byte	0x50
 5931 1827 01       		.uleb128 0x1
 5932 1828 3A       		.byte	0x3a
 5933 1829 0B       		.uleb128 0xb
 5934 182a 01       		.uleb128 0x1
 5935 182b 51       		.byte	0x51
 5936 182c 02       		.uleb128 0x2
 5937 182d 09       		.byte	0x9
 5938 182e FF       		.byte	0xff
 5939 182f 00       		.byte	0
ARM GAS  C:\Users\8523~1\AppData\Local\Temp\ccJE8vL2.s 			page 131


 5940 1830 0A       		.uleb128 0xa
 5941 1831 78040000 		.4byte	.LVL255
 5942 1835 6C1C0000 		.4byte	0x1c6c
 5943 1839 49180000 		.4byte	0x1849
 5944 183d 0B       		.uleb128 0xb
 5945 183e 01       		.uleb128 0x1
 5946 183f 50       		.byte	0x50
 5947 1840 01       		.uleb128 0x1
 5948 1841 3A       		.byte	0x3a
 5949 1842 0B       		.uleb128 0xb
 5950 1843 01       		.uleb128 0x1
 5951 1844 51       		.byte	0x51
 5952 1845 02       		.uleb128 0x2
 5953 1846 09       		.byte	0x9
 5954 1847 AA       		.byte	0xaa
 5955 1848 00       		.byte	0
 5956 1849 0A       		.uleb128 0xa
 5957 184a 80040000 		.4byte	.LVL256
 5958 184e 6C1C0000 		.4byte	0x1c6c
 5959 1852 62180000 		.4byte	0x1862
 5960 1856 0B       		.uleb128 0xb
 5961 1857 01       		.uleb128 0x1
 5962 1858 50       		.byte	0x50
 5963 1859 01       		.uleb128 0x1
 5964 185a 3A       		.byte	0x3a
 5965 185b 0B       		.uleb128 0xb
 5966 185c 01       		.uleb128 0x1
 5967 185d 51       		.byte	0x51
 5968 185e 02       		.uleb128 0x2
 5969 185f 09       		.byte	0x9
 5970 1860 80       		.byte	0x80
 5971 1861 00       		.byte	0
 5972 1862 0A       		.uleb128 0xa
 5973 1863 88040000 		.4byte	.LVL257
 5974 1867 6C1C0000 		.4byte	0x1c6c
 5975 186b 7B180000 		.4byte	0x187b
 5976 186f 0B       		.uleb128 0xb
 5977 1870 01       		.uleb128 0x1
 5978 1871 50       		.byte	0x50
 5979 1872 01       		.uleb128 0x1
 5980 1873 3A       		.byte	0x3a
 5981 1874 0B       		.uleb128 0xb
 5982 1875 01       		.uleb128 0x1
 5983 1876 51       		.byte	0x51
 5984 1877 02       		.uleb128 0x2
 5985 1878 08       		.byte	0x8
 5986 1879 6B       		.byte	0x6b
 5987 187a 00       		.byte	0
 5988 187b 0A       		.uleb128 0xa
 5989 187c 90040000 		.4byte	.LVL258
 5990 1880 6C1C0000 		.4byte	0x1c6c
 5991 1884 94180000 		.4byte	0x1894
 5992 1888 0B       		.uleb128 0xb
 5993 1889 01       		.uleb128 0x1
 5994 188a 50       		.byte	0x50
 5995 188b 01       		.uleb128 0x1
 5996 188c 3A       		.byte	0x3a
ARM GAS  C:\Users\8523~1\AppData\Local\Temp\ccJE8vL2.s 			page 132


 5997 188d 0B       		.uleb128 0xb
 5998 188e 01       		.uleb128 0x1
 5999 188f 51       		.byte	0x51
 6000 1890 02       		.uleb128 0x2
 6001 1891 09       		.byte	0x9
 6002 1892 FF       		.byte	0xff
 6003 1893 00       		.byte	0
 6004 1894 0A       		.uleb128 0xa
 6005 1895 98040000 		.4byte	.LVL259
 6006 1899 6C1C0000 		.4byte	0x1c6c
 6007 189d AD180000 		.4byte	0x18ad
 6008 18a1 0B       		.uleb128 0xb
 6009 18a2 01       		.uleb128 0x1
 6010 18a3 50       		.byte	0x50
 6011 18a4 01       		.uleb128 0x1
 6012 18a5 3A       		.byte	0x3a
 6013 18a6 0B       		.uleb128 0xb
 6014 18a7 01       		.uleb128 0x1
 6015 18a8 51       		.byte	0x51
 6016 18a9 02       		.uleb128 0x2
 6017 18aa 09       		.byte	0x9
 6018 18ab AA       		.byte	0xaa
 6019 18ac 00       		.byte	0
 6020 18ad 0A       		.uleb128 0xa
 6021 18ae A0040000 		.4byte	.LVL260
 6022 18b2 6C1C0000 		.4byte	0x1c6c
 6023 18b6 C6180000 		.4byte	0x18c6
 6024 18ba 0B       		.uleb128 0xb
 6025 18bb 01       		.uleb128 0x1
 6026 18bc 50       		.byte	0x50
 6027 18bd 01       		.uleb128 0x1
 6028 18be 3A       		.byte	0x3a
 6029 18bf 0B       		.uleb128 0xb
 6030 18c0 01       		.uleb128 0x1
 6031 18c1 51       		.byte	0x51
 6032 18c2 02       		.uleb128 0x2
 6033 18c3 09       		.byte	0x9
 6034 18c4 80       		.byte	0x80
 6035 18c5 00       		.byte	0
 6036 18c6 0A       		.uleb128 0xa
 6037 18c7 A8040000 		.4byte	.LVL261
 6038 18cb 6C1C0000 		.4byte	0x1c6c
 6039 18cf DF180000 		.4byte	0x18df
 6040 18d3 0B       		.uleb128 0xb
 6041 18d4 01       		.uleb128 0x1
 6042 18d5 50       		.byte	0x50
 6043 18d6 01       		.uleb128 0x1
 6044 18d7 3A       		.byte	0x3a
 6045 18d8 0B       		.uleb128 0xb
 6046 18d9 01       		.uleb128 0x1
 6047 18da 51       		.byte	0x51
 6048 18db 02       		.uleb128 0x2
 6049 18dc 08       		.byte	0x8
 6050 18dd 6B       		.byte	0x6b
 6051 18de 00       		.byte	0
 6052 18df 0A       		.uleb128 0xa
 6053 18e0 B0040000 		.4byte	.LVL262
ARM GAS  C:\Users\8523~1\AppData\Local\Temp\ccJE8vL2.s 			page 133


 6054 18e4 6C1C0000 		.4byte	0x1c6c
 6055 18e8 F8180000 		.4byte	0x18f8
 6056 18ec 0B       		.uleb128 0xb
 6057 18ed 01       		.uleb128 0x1
 6058 18ee 50       		.byte	0x50
 6059 18ef 01       		.uleb128 0x1
 6060 18f0 3A       		.byte	0x3a
 6061 18f1 0B       		.uleb128 0xb
 6062 18f2 01       		.uleb128 0x1
 6063 18f3 51       		.byte	0x51
 6064 18f4 02       		.uleb128 0x2
 6065 18f5 09       		.byte	0x9
 6066 18f6 FF       		.byte	0xff
 6067 18f7 00       		.byte	0
 6068 18f8 0A       		.uleb128 0xa
 6069 18f9 B8040000 		.4byte	.LVL263
 6070 18fd 6C1C0000 		.4byte	0x1c6c
 6071 1901 11190000 		.4byte	0x1911
 6072 1905 0B       		.uleb128 0xb
 6073 1906 01       		.uleb128 0x1
 6074 1907 50       		.byte	0x50
 6075 1908 01       		.uleb128 0x1
 6076 1909 3A       		.byte	0x3a
 6077 190a 0B       		.uleb128 0xb
 6078 190b 01       		.uleb128 0x1
 6079 190c 51       		.byte	0x51
 6080 190d 02       		.uleb128 0x2
 6081 190e 09       		.byte	0x9
 6082 190f AA       		.byte	0xaa
 6083 1910 00       		.byte	0
 6084 1911 0A       		.uleb128 0xa
 6085 1912 C0040000 		.4byte	.LVL264
 6086 1916 6C1C0000 		.4byte	0x1c6c
 6087 191a 2A190000 		.4byte	0x192a
 6088 191e 0B       		.uleb128 0xb
 6089 191f 01       		.uleb128 0x1
 6090 1920 50       		.byte	0x50
 6091 1921 01       		.uleb128 0x1
 6092 1922 3A       		.byte	0x3a
 6093 1923 0B       		.uleb128 0xb
 6094 1924 01       		.uleb128 0x1
 6095 1925 51       		.byte	0x51
 6096 1926 02       		.uleb128 0x2
 6097 1927 09       		.byte	0x9
 6098 1928 80       		.byte	0x80
 6099 1929 00       		.byte	0
 6100 192a 0A       		.uleb128 0xa
 6101 192b C6040000 		.4byte	.LVL265
 6102 192f 081C0000 		.4byte	0x1c08
 6103 1933 3E190000 		.4byte	0x193e
 6104 1937 0B       		.uleb128 0xb
 6105 1938 01       		.uleb128 0x1
 6106 1939 50       		.byte	0x50
 6107 193a 02       		.uleb128 0x2
 6108 193b 08       		.byte	0x8
 6109 193c 64       		.byte	0x64
 6110 193d 00       		.byte	0
ARM GAS  C:\Users\8523~1\AppData\Local\Temp\ccJE8vL2.s 			page 134


 6111 193e 0A       		.uleb128 0xa
 6112 193f CE040000 		.4byte	.LVL266
 6113 1943 6C1C0000 		.4byte	0x1c6c
 6114 1947 57190000 		.4byte	0x1957
 6115 194b 0B       		.uleb128 0xb
 6116 194c 01       		.uleb128 0x1
 6117 194d 50       		.byte	0x50
 6118 194e 01       		.uleb128 0x1
 6119 194f 3A       		.byte	0x3a
 6120 1950 0B       		.uleb128 0xb
 6121 1951 01       		.uleb128 0x1
 6122 1952 51       		.byte	0x51
 6123 1953 02       		.uleb128 0x2
 6124 1954 09       		.byte	0x9
 6125 1955 B4       		.byte	0xb4
 6126 1956 00       		.byte	0
 6127 1957 0A       		.uleb128 0xa
 6128 1958 D6040000 		.4byte	.LVL267
 6129 195c 6C1C0000 		.4byte	0x1c6c
 6130 1960 70190000 		.4byte	0x1970
 6131 1964 0B       		.uleb128 0xb
 6132 1965 01       		.uleb128 0x1
 6133 1966 50       		.byte	0x50
 6134 1967 01       		.uleb128 0x1
 6135 1968 3A       		.byte	0x3a
 6136 1969 0B       		.uleb128 0xb
 6137 196a 01       		.uleb128 0x1
 6138 196b 51       		.byte	0x51
 6139 196c 02       		.uleb128 0x2
 6140 196d 09       		.byte	0x9
 6141 196e 8F       		.byte	0x8f
 6142 196f 00       		.byte	0
 6143 1970 0A       		.uleb128 0xa
 6144 1971 DE040000 		.4byte	.LVL268
 6145 1975 6C1C0000 		.4byte	0x1c6c
 6146 1979 89190000 		.4byte	0x1989
 6147 197d 0B       		.uleb128 0xb
 6148 197e 01       		.uleb128 0x1
 6149 197f 50       		.byte	0x50
 6150 1980 01       		.uleb128 0x1
 6151 1981 3A       		.byte	0x3a
 6152 1982 0B       		.uleb128 0xb
 6153 1983 01       		.uleb128 0x1
 6154 1984 51       		.byte	0x51
 6155 1985 02       		.uleb128 0x2
 6156 1986 08       		.byte	0x8
 6157 1987 72       		.byte	0x72
 6158 1988 00       		.byte	0
 6159 1989 0A       		.uleb128 0xa
 6160 198a E6040000 		.4byte	.LVL269
 6161 198e 6C1C0000 		.4byte	0x1c6c
 6162 1992 A2190000 		.4byte	0x19a2
 6163 1996 0B       		.uleb128 0xb
 6164 1997 01       		.uleb128 0x1
 6165 1998 50       		.byte	0x50
 6166 1999 01       		.uleb128 0x1
 6167 199a 3A       		.byte	0x3a
ARM GAS  C:\Users\8523~1\AppData\Local\Temp\ccJE8vL2.s 			page 135


 6168 199b 0B       		.uleb128 0xb
 6169 199c 01       		.uleb128 0x1
 6170 199d 51       		.byte	0x51
 6171 199e 02       		.uleb128 0x2
 6172 199f 08       		.byte	0x8
 6173 19a0 5A       		.byte	0x5a
 6174 19a1 00       		.byte	0
 6175 19a2 0A       		.uleb128 0xa
 6176 19a3 EE040000 		.4byte	.LVL270
 6177 19a7 6C1C0000 		.4byte	0x1c6c
 6178 19ab BB190000 		.4byte	0x19bb
 6179 19af 0B       		.uleb128 0xb
 6180 19b0 01       		.uleb128 0x1
 6181 19b1 50       		.byte	0x50
 6182 19b2 01       		.uleb128 0x1
 6183 19b3 3A       		.byte	0x3a
 6184 19b4 0B       		.uleb128 0xb
 6185 19b5 01       		.uleb128 0x1
 6186 19b6 51       		.byte	0x51
 6187 19b7 02       		.uleb128 0x2
 6188 19b8 09       		.byte	0x9
 6189 19b9 B4       		.byte	0xb4
 6190 19ba 00       		.byte	0
 6191 19bb 0A       		.uleb128 0xa
 6192 19bc F6040000 		.4byte	.LVL271
 6193 19c0 6C1C0000 		.4byte	0x1c6c
 6194 19c4 D4190000 		.4byte	0x19d4
 6195 19c8 0B       		.uleb128 0xb
 6196 19c9 01       		.uleb128 0x1
 6197 19ca 50       		.byte	0x50
 6198 19cb 01       		.uleb128 0x1
 6199 19cc 3A       		.byte	0x3a
 6200 19cd 0B       		.uleb128 0xb
 6201 19ce 01       		.uleb128 0x1
 6202 19cf 51       		.byte	0x51
 6203 19d0 02       		.uleb128 0x2
 6204 19d1 09       		.byte	0x9
 6205 19d2 8F       		.byte	0x8f
 6206 19d3 00       		.byte	0
 6207 19d4 0A       		.uleb128 0xa
 6208 19d5 FE040000 		.4byte	.LVL272
 6209 19d9 6C1C0000 		.4byte	0x1c6c
 6210 19dd ED190000 		.4byte	0x19ed
 6211 19e1 0B       		.uleb128 0xb
 6212 19e2 01       		.uleb128 0x1
 6213 19e3 50       		.byte	0x50
 6214 19e4 01       		.uleb128 0x1
 6215 19e5 3A       		.byte	0x3a
 6216 19e6 0B       		.uleb128 0xb
 6217 19e7 01       		.uleb128 0x1
 6218 19e8 51       		.byte	0x51
 6219 19e9 02       		.uleb128 0x2
 6220 19ea 08       		.byte	0x8
 6221 19eb 72       		.byte	0x72
 6222 19ec 00       		.byte	0
 6223 19ed 0A       		.uleb128 0xa
 6224 19ee 06050000 		.4byte	.LVL273
ARM GAS  C:\Users\8523~1\AppData\Local\Temp\ccJE8vL2.s 			page 136


 6225 19f2 6C1C0000 		.4byte	0x1c6c
 6226 19f6 061A0000 		.4byte	0x1a06
 6227 19fa 0B       		.uleb128 0xb
 6228 19fb 01       		.uleb128 0x1
 6229 19fc 50       		.byte	0x50
 6230 19fd 01       		.uleb128 0x1
 6231 19fe 3A       		.byte	0x3a
 6232 19ff 0B       		.uleb128 0xb
 6233 1a00 01       		.uleb128 0x1
 6234 1a01 51       		.byte	0x51
 6235 1a02 02       		.uleb128 0x2
 6236 1a03 08       		.byte	0x8
 6237 1a04 5A       		.byte	0x5a
 6238 1a05 00       		.byte	0
 6239 1a06 0A       		.uleb128 0xa
 6240 1a07 0E050000 		.4byte	.LVL274
 6241 1a0b 6C1C0000 		.4byte	0x1c6c
 6242 1a0f 1F1A0000 		.4byte	0x1a1f
 6243 1a13 0B       		.uleb128 0xb
 6244 1a14 01       		.uleb128 0x1
 6245 1a15 50       		.byte	0x50
 6246 1a16 01       		.uleb128 0x1
 6247 1a17 3A       		.byte	0x3a
 6248 1a18 0B       		.uleb128 0xb
 6249 1a19 01       		.uleb128 0x1
 6250 1a1a 51       		.byte	0x51
 6251 1a1b 02       		.uleb128 0x2
 6252 1a1c 09       		.byte	0x9
 6253 1a1d B4       		.byte	0xb4
 6254 1a1e 00       		.byte	0
 6255 1a1f 0A       		.uleb128 0xa
 6256 1a20 16050000 		.4byte	.LVL275
 6257 1a24 6C1C0000 		.4byte	0x1c6c
 6258 1a28 381A0000 		.4byte	0x1a38
 6259 1a2c 0B       		.uleb128 0xb
 6260 1a2d 01       		.uleb128 0x1
 6261 1a2e 50       		.byte	0x50
 6262 1a2f 01       		.uleb128 0x1
 6263 1a30 3A       		.byte	0x3a
 6264 1a31 0B       		.uleb128 0xb
 6265 1a32 01       		.uleb128 0x1
 6266 1a33 51       		.byte	0x51
 6267 1a34 02       		.uleb128 0x2
 6268 1a35 09       		.byte	0x9
 6269 1a36 8F       		.byte	0x8f
 6270 1a37 00       		.byte	0
 6271 1a38 0A       		.uleb128 0xa
 6272 1a39 1E050000 		.4byte	.LVL276
 6273 1a3d 6C1C0000 		.4byte	0x1c6c
 6274 1a41 511A0000 		.4byte	0x1a51
 6275 1a45 0B       		.uleb128 0xb
 6276 1a46 01       		.uleb128 0x1
 6277 1a47 50       		.byte	0x50
 6278 1a48 01       		.uleb128 0x1
 6279 1a49 3A       		.byte	0x3a
 6280 1a4a 0B       		.uleb128 0xb
 6281 1a4b 01       		.uleb128 0x1
ARM GAS  C:\Users\8523~1\AppData\Local\Temp\ccJE8vL2.s 			page 137


 6282 1a4c 51       		.byte	0x51
 6283 1a4d 02       		.uleb128 0x2
 6284 1a4e 08       		.byte	0x8
 6285 1a4f 72       		.byte	0x72
 6286 1a50 00       		.byte	0
 6287 1a51 0A       		.uleb128 0xa
 6288 1a52 26050000 		.4byte	.LVL277
 6289 1a56 6C1C0000 		.4byte	0x1c6c
 6290 1a5a 6A1A0000 		.4byte	0x1a6a
 6291 1a5e 0B       		.uleb128 0xb
 6292 1a5f 01       		.uleb128 0x1
 6293 1a60 50       		.byte	0x50
 6294 1a61 01       		.uleb128 0x1
 6295 1a62 3A       		.byte	0x3a
 6296 1a63 0B       		.uleb128 0xb
 6297 1a64 01       		.uleb128 0x1
 6298 1a65 51       		.byte	0x51
 6299 1a66 02       		.uleb128 0x2
 6300 1a67 08       		.byte	0x8
 6301 1a68 5A       		.byte	0x5a
 6302 1a69 00       		.byte	0
 6303 1a6a 0A       		.uleb128 0xa
 6304 1a6b 2E050000 		.4byte	.LVL278
 6305 1a6f 6C1C0000 		.4byte	0x1c6c
 6306 1a73 831A0000 		.4byte	0x1a83
 6307 1a77 0B       		.uleb128 0xb
 6308 1a78 01       		.uleb128 0x1
 6309 1a79 50       		.byte	0x50
 6310 1a7a 01       		.uleb128 0x1
 6311 1a7b 3A       		.byte	0x3a
 6312 1a7c 0B       		.uleb128 0xb
 6313 1a7d 01       		.uleb128 0x1
 6314 1a7e 51       		.byte	0x51
 6315 1a7f 02       		.uleb128 0x2
 6316 1a80 09       		.byte	0x9
 6317 1a81 B4       		.byte	0xb4
 6318 1a82 00       		.byte	0
 6319 1a83 0A       		.uleb128 0xa
 6320 1a84 36050000 		.4byte	.LVL279
 6321 1a88 6C1C0000 		.4byte	0x1c6c
 6322 1a8c 9C1A0000 		.4byte	0x1a9c
 6323 1a90 0B       		.uleb128 0xb
 6324 1a91 01       		.uleb128 0x1
 6325 1a92 50       		.byte	0x50
 6326 1a93 01       		.uleb128 0x1
 6327 1a94 3A       		.byte	0x3a
 6328 1a95 0B       		.uleb128 0xb
 6329 1a96 01       		.uleb128 0x1
 6330 1a97 51       		.byte	0x51
 6331 1a98 02       		.uleb128 0x2
 6332 1a99 09       		.byte	0x9
 6333 1a9a 8F       		.byte	0x8f
 6334 1a9b 00       		.byte	0
 6335 1a9c 0A       		.uleb128 0xa
 6336 1a9d 3E050000 		.4byte	.LVL280
 6337 1aa1 6C1C0000 		.4byte	0x1c6c
 6338 1aa5 B51A0000 		.4byte	0x1ab5
ARM GAS  C:\Users\8523~1\AppData\Local\Temp\ccJE8vL2.s 			page 138


 6339 1aa9 0B       		.uleb128 0xb
 6340 1aaa 01       		.uleb128 0x1
 6341 1aab 50       		.byte	0x50
 6342 1aac 01       		.uleb128 0x1
 6343 1aad 3A       		.byte	0x3a
 6344 1aae 0B       		.uleb128 0xb
 6345 1aaf 01       		.uleb128 0x1
 6346 1ab0 51       		.byte	0x51
 6347 1ab1 02       		.uleb128 0x2
 6348 1ab2 08       		.byte	0x8
 6349 1ab3 72       		.byte	0x72
 6350 1ab4 00       		.byte	0
 6351 1ab5 0D       		.uleb128 0xd
 6352 1ab6 46050000 		.4byte	.LVL281
 6353 1aba 6C1C0000 		.4byte	0x1c6c
 6354 1abe 0B       		.uleb128 0xb
 6355 1abf 01       		.uleb128 0x1
 6356 1ac0 50       		.byte	0x50
 6357 1ac1 01       		.uleb128 0x1
 6358 1ac2 3A       		.byte	0x3a
 6359 1ac3 0B       		.uleb128 0xb
 6360 1ac4 01       		.uleb128 0x1
 6361 1ac5 51       		.byte	0x51
 6362 1ac6 02       		.uleb128 0x2
 6363 1ac7 08       		.byte	0x8
 6364 1ac8 5A       		.byte	0x5a
 6365 1ac9 00       		.byte	0
 6366 1aca 00       		.byte	0
 6367 1acb 12       		.uleb128 0x12
 6368 1acc 9F020000 		.4byte	.LASF35
 6369 1ad0 07       		.byte	0x7
 6370 1ad1 1207     		.2byte	0x712
 6371 1ad3 D71A0000 		.4byte	0x1ad7
 6372 1ad7 13       		.uleb128 0x13
 6373 1ad8 97000000 		.4byte	0x97
 6374 1adc 14       		.uleb128 0x14
 6375 1add 9F000000 		.4byte	.LASF36
 6376 1ae1 01       		.byte	0x1
 6377 1ae2 9302     		.2byte	0x293
 6378 1ae4 7E000000 		.4byte	0x7e
 6379 1ae8 05       		.uleb128 0x5
 6380 1ae9 03       		.byte	0x3
 6381 1aea 00000000 		.4byte	line
 6382 1aee 15       		.uleb128 0x15
 6383 1aef 7800     		.ascii	"x\000"
 6384 1af1 01       		.byte	0x1
 6385 1af2 9402     		.2byte	0x294
 6386 1af4 7E000000 		.4byte	0x7e
 6387 1af8 05       		.uleb128 0x5
 6388 1af9 03       		.byte	0x3
 6389 1afa 00000000 		.4byte	x
 6390 1afe 15       		.uleb128 0x15
 6391 1aff 7900     		.ascii	"y\000"
 6392 1b01 01       		.byte	0x1
 6393 1b02 9402     		.2byte	0x294
 6394 1b04 7E000000 		.4byte	0x7e
 6395 1b08 05       		.uleb128 0x5
ARM GAS  C:\Users\8523~1\AppData\Local\Temp\ccJE8vL2.s 			page 139


 6396 1b09 03       		.byte	0x3
 6397 1b0a 00000000 		.4byte	y
 6398 1b0e 14       		.uleb128 0x14
 6399 1b0f 18020000 		.4byte	.LASF37
 6400 1b13 01       		.byte	0x1
 6401 1b14 9402     		.2byte	0x294
 6402 1b16 7E000000 		.4byte	0x7e
 6403 1b1a 05       		.uleb128 0x5
 6404 1b1b 03       		.byte	0x3
 6405 1b1c 00000000 		.4byte	distance
 6406 1b20 14       		.uleb128 0x14
 6407 1b21 D6020000 		.4byte	.LASF38
 6408 1b25 01       		.byte	0x1
 6409 1b26 9402     		.2byte	0x294
 6410 1b28 7E000000 		.4byte	0x7e
 6411 1b2c 05       		.uleb128 0x5
 6412 1b2d 03       		.byte	0x3
 6413 1b2e 00000000 		.4byte	obstacle
 6414 1b32 14       		.uleb128 0x14
 6415 1b33 A0030000 		.4byte	.LASF39
 6416 1b37 01       		.byte	0x1
 6417 1b38 9502     		.2byte	0x295
 6418 1b3a 7E000000 		.4byte	0x7e
 6419 1b3e 05       		.uleb128 0x5
 6420 1b3f 03       		.byte	0x3
 6421 1b40 00000000 		.4byte	onblack
 6422 1b44 14       		.uleb128 0x14
 6423 1b45 F8020000 		.4byte	.LASF40
 6424 1b49 01       		.byte	0x1
 6425 1b4a 9502     		.2byte	0x295
 6426 1b4c 7E000000 		.4byte	0x7e
 6427 1b50 05       		.uleb128 0x5
 6428 1b51 03       		.byte	0x3
 6429 1b52 00000000 		.4byte	onwhite
 6430 1b56 14       		.uleb128 0x14
 6431 1b57 7A000000 		.4byte	.LASF41
 6432 1b5b 01       		.byte	0x1
 6433 1b5c 9502     		.2byte	0x295
 6434 1b5e 7E000000 		.4byte	0x7e
 6435 1b62 05       		.uleb128 0x5
 6436 1b63 03       		.byte	0x3
 6437 1b64 00000000 		.4byte	online
 6438 1b68 14       		.uleb128 0x14
 6439 1b69 09000000 		.4byte	.LASF42
 6440 1b6d 01       		.byte	0x1
 6441 1b6e 9602     		.2byte	0x296
 6442 1b70 E8000000 		.4byte	0xe8
 6443 1b74 05       		.uleb128 0x5
 6444 1b75 03       		.byte	0x3
 6445 1b76 00000000 		.4byte	starttime
 6446 1b7a 14       		.uleb128 0x14
 6447 1b7b DC000000 		.4byte	.LASF43
 6448 1b7f 01       		.byte	0x1
 6449 1b80 9602     		.2byte	0x296
 6450 1b82 E8000000 		.4byte	0xe8
 6451 1b86 05       		.uleb128 0x5
 6452 1b87 03       		.byte	0x3
ARM GAS  C:\Users\8523~1\AppData\Local\Temp\ccJE8vL2.s 			page 140


 6453 1b88 00000000 		.4byte	finishtime
 6454 1b8c 14       		.uleb128 0x14
 6455 1b8d EF020000 		.4byte	.LASF44
 6456 1b91 01       		.byte	0x1
 6457 1b92 9602     		.2byte	0x296
 6458 1b94 E8000000 		.4byte	0xe8
 6459 1b98 05       		.uleb128 0x5
 6460 1b99 03       		.byte	0x3
 6461 1b9a 00000000 		.4byte	timepass
 6462 1b9e 14       		.uleb128 0x14
 6463 1b9f 39000000 		.4byte	.LASF45
 6464 1ba3 01       		.byte	0x1
 6465 1ba4 9702     		.2byte	0x297
 6466 1ba6 D3000000 		.4byte	0xd3
 6467 1baa 05       		.uleb128 0x5
 6468 1bab 03       		.byte	0x3
 6469 1bac 00000000 		.4byte	compass
 6470 1bb0 16       		.uleb128 0x16
 6471 1bb1 BB030000 		.4byte	.LASF46
 6472 1bb5 BB030000 		.4byte	.LASF46
 6473 1bb9 06       		.byte	0x6
 6474 1bba 1A       		.byte	0x1a
 6475 1bbb 16       		.uleb128 0x16
 6476 1bbc F9000000 		.4byte	.LASF47
 6477 1bc0 F9000000 		.4byte	.LASF47
 6478 1bc4 06       		.byte	0x6
 6479 1bc5 19       		.byte	0x19
 6480 1bc6 16       		.uleb128 0x16
 6481 1bc7 B6000000 		.4byte	.LASF48
 6482 1bcb B6000000 		.4byte	.LASF48
 6483 1bcf 08       		.byte	0x8
 6484 1bd0 0D       		.byte	0xd
 6485 1bd1 16       		.uleb128 0x16
 6486 1bd2 4E020000 		.4byte	.LASF49
 6487 1bd6 4E020000 		.4byte	.LASF49
 6488 1bda 09       		.byte	0x9
 6489 1bdb 07       		.byte	0x7
 6490 1bdc 16       		.uleb128 0x16
 6491 1bdd A8030000 		.4byte	.LASF50
 6492 1be1 A8030000 		.4byte	.LASF50
 6493 1be5 0A       		.byte	0xa
 6494 1be6 26       		.byte	0x26
 6495 1be7 16       		.uleb128 0x16
 6496 1be8 2E010000 		.4byte	.LASF51
 6497 1bec 2E010000 		.4byte	.LASF51
 6498 1bf0 0B       		.byte	0xb
 6499 1bf1 26       		.byte	0x26
 6500 1bf2 16       		.uleb128 0x16
 6501 1bf3 E7000000 		.4byte	.LASF52
 6502 1bf7 E7000000 		.4byte	.LASF52
 6503 1bfb 0C       		.byte	0xc
 6504 1bfc C7       		.byte	0xc7
 6505 1bfd 16       		.uleb128 0x16
 6506 1bfe E3010000 		.4byte	.LASF53
 6507 1c02 E3010000 		.4byte	.LASF53
 6508 1c06 0C       		.byte	0xc
 6509 1c07 CA       		.byte	0xca
ARM GAS  C:\Users\8523~1\AppData\Local\Temp\ccJE8vL2.s 			page 141


 6510 1c08 17       		.uleb128 0x17
 6511 1c09 B3010000 		.4byte	.LASF54
 6512 1c0d B3010000 		.4byte	.LASF54
 6513 1c11 0D       		.byte	0xd
 6514 1c12 ED02     		.2byte	0x2ed
 6515 1c14 16       		.uleb128 0x16
 6516 1c15 F5010000 		.4byte	.LASF55
 6517 1c19 F5010000 		.4byte	.LASF55
 6518 1c1d 0E       		.byte	0xe
 6519 1c1e 0F       		.byte	0xf
 6520 1c1f 16       		.uleb128 0x16
 6521 1c20 81000000 		.4byte	.LASF56
 6522 1c24 81000000 		.4byte	.LASF56
 6523 1c28 0E       		.byte	0xe
 6524 1c29 12       		.byte	0x12
 6525 1c2a 16       		.uleb128 0x16
 6526 1c2b 42010000 		.4byte	.LASF57
 6527 1c2f 42010000 		.4byte	.LASF57
 6528 1c33 0F       		.byte	0xf
 6529 1c34 11       		.byte	0x11
 6530 1c35 16       		.uleb128 0x16
 6531 1c36 BE010000 		.4byte	.LASF58
 6532 1c3a BE010000 		.4byte	.LASF58
 6533 1c3e 0F       		.byte	0xf
 6534 1c3f 18       		.byte	0x18
 6535 1c40 16       		.uleb128 0x16
 6536 1c41 71010000 		.4byte	.LASF59
 6537 1c45 71010000 		.4byte	.LASF59
 6538 1c49 08       		.byte	0x8
 6539 1c4a 0A       		.byte	0xa
 6540 1c4b 16       		.uleb128 0x16
 6541 1c4c A4000000 		.4byte	.LASF60
 6542 1c50 A4000000 		.4byte	.LASF60
 6543 1c54 06       		.byte	0x6
 6544 1c55 17       		.byte	0x17
 6545 1c56 16       		.uleb128 0x16
 6546 1c57 93020000 		.4byte	.LASF61
 6547 1c5b 93020000 		.4byte	.LASF61
 6548 1c5f 0E       		.byte	0xe
 6549 1c60 0B       		.byte	0xb
 6550 1c61 16       		.uleb128 0x16
 6551 1c62 59020000 		.4byte	.LASF62
 6552 1c66 59020000 		.4byte	.LASF62
 6553 1c6a 10       		.byte	0x10
 6554 1c6b 29       		.byte	0x29
 6555 1c6c 16       		.uleb128 0x16
 6556 1c6d 8B010000 		.4byte	.LASF63
 6557 1c71 8B010000 		.4byte	.LASF63
 6558 1c75 11       		.byte	0x11
 6559 1c76 05       		.byte	0x5
 6560 1c77 16       		.uleb128 0x16
 6561 1c78 0A030000 		.4byte	.LASF64
 6562 1c7c 0A030000 		.4byte	.LASF64
 6563 1c80 0F       		.byte	0xf
 6564 1c81 1B       		.byte	0x1b
 6565 1c82 17       		.uleb128 0x17
 6566 1c83 1C010000 		.4byte	.LASF65
ARM GAS  C:\Users\8523~1\AppData\Local\Temp\ccJE8vL2.s 			page 142


 6567 1c87 1C010000 		.4byte	.LASF65
 6568 1c8b 0D       		.byte	0xd
 6569 1c8c 3E05     		.2byte	0x53e
 6570 1c8e 16       		.uleb128 0x16
 6571 1c8f 13000000 		.4byte	.LASF66
 6572 1c93 13000000 		.4byte	.LASF66
 6573 1c97 0E       		.byte	0xe
 6574 1c98 0C       		.byte	0xc
 6575 1c99 00       		.byte	0
 6576              		.section	.debug_abbrev,"",%progbits
 6577              	.Ldebug_abbrev0:
 6578 0000 01       		.uleb128 0x1
 6579 0001 11       		.uleb128 0x11
 6580 0002 01       		.byte	0x1
 6581 0003 25       		.uleb128 0x25
 6582 0004 0E       		.uleb128 0xe
 6583 0005 13       		.uleb128 0x13
 6584 0006 0B       		.uleb128 0xb
 6585 0007 03       		.uleb128 0x3
 6586 0008 0E       		.uleb128 0xe
 6587 0009 1B       		.uleb128 0x1b
 6588 000a 0E       		.uleb128 0xe
 6589 000b 55       		.uleb128 0x55
 6590 000c 17       		.uleb128 0x17
 6591 000d 11       		.uleb128 0x11
 6592 000e 01       		.uleb128 0x1
 6593 000f 10       		.uleb128 0x10
 6594 0010 17       		.uleb128 0x17
 6595 0011 00       		.byte	0
 6596 0012 00       		.byte	0
 6597 0013 02       		.uleb128 0x2
 6598 0014 24       		.uleb128 0x24
 6599 0015 00       		.byte	0
 6600 0016 0B       		.uleb128 0xb
 6601 0017 0B       		.uleb128 0xb
 6602 0018 3E       		.uleb128 0x3e
 6603 0019 0B       		.uleb128 0xb
 6604 001a 03       		.uleb128 0x3
 6605 001b 0E       		.uleb128 0xe
 6606 001c 00       		.byte	0
 6607 001d 00       		.byte	0
 6608 001e 03       		.uleb128 0x3
 6609 001f 16       		.uleb128 0x16
 6610 0020 00       		.byte	0
 6611 0021 03       		.uleb128 0x3
 6612 0022 0E       		.uleb128 0xe
 6613 0023 3A       		.uleb128 0x3a
 6614 0024 0B       		.uleb128 0xb
 6615 0025 3B       		.uleb128 0x3b
 6616 0026 0B       		.uleb128 0xb
 6617 0027 49       		.uleb128 0x49
 6618 0028 13       		.uleb128 0x13
 6619 0029 00       		.byte	0
 6620 002a 00       		.byte	0
 6621 002b 04       		.uleb128 0x4
 6622 002c 24       		.uleb128 0x24
 6623 002d 00       		.byte	0
ARM GAS  C:\Users\8523~1\AppData\Local\Temp\ccJE8vL2.s 			page 143


 6624 002e 0B       		.uleb128 0xb
 6625 002f 0B       		.uleb128 0xb
 6626 0030 3E       		.uleb128 0x3e
 6627 0031 0B       		.uleb128 0xb
 6628 0032 03       		.uleb128 0x3
 6629 0033 08       		.uleb128 0x8
 6630 0034 00       		.byte	0
 6631 0035 00       		.byte	0
 6632 0036 05       		.uleb128 0x5
 6633 0037 16       		.uleb128 0x16
 6634 0038 00       		.byte	0
 6635 0039 03       		.uleb128 0x3
 6636 003a 0E       		.uleb128 0xe
 6637 003b 3A       		.uleb128 0x3a
 6638 003c 0B       		.uleb128 0xb
 6639 003d 3B       		.uleb128 0x3b
 6640 003e 05       		.uleb128 0x5
 6641 003f 49       		.uleb128 0x49
 6642 0040 13       		.uleb128 0x13
 6643 0041 00       		.byte	0
 6644 0042 00       		.byte	0
 6645 0043 06       		.uleb128 0x6
 6646 0044 13       		.uleb128 0x13
 6647 0045 01       		.byte	0x1
 6648 0046 03       		.uleb128 0x3
 6649 0047 0E       		.uleb128 0xe
 6650 0048 0B       		.uleb128 0xb
 6651 0049 0B       		.uleb128 0xb
 6652 004a 3A       		.uleb128 0x3a
 6653 004b 0B       		.uleb128 0xb
 6654 004c 3B       		.uleb128 0x3b
 6655 004d 0B       		.uleb128 0xb
 6656 004e 01       		.uleb128 0x1
 6657 004f 13       		.uleb128 0x13
 6658 0050 00       		.byte	0
 6659 0051 00       		.byte	0
 6660 0052 07       		.uleb128 0x7
 6661 0053 0D       		.uleb128 0xd
 6662 0054 00       		.byte	0
 6663 0055 03       		.uleb128 0x3
 6664 0056 08       		.uleb128 0x8
 6665 0057 3A       		.uleb128 0x3a
 6666 0058 0B       		.uleb128 0xb
 6667 0059 3B       		.uleb128 0x3b
 6668 005a 0B       		.uleb128 0xb
 6669 005b 49       		.uleb128 0x49
 6670 005c 13       		.uleb128 0x13
 6671 005d 38       		.uleb128 0x38
 6672 005e 0B       		.uleb128 0xb
 6673 005f 00       		.byte	0
 6674 0060 00       		.byte	0
 6675 0061 08       		.uleb128 0x8
 6676 0062 2E       		.uleb128 0x2e
 6677 0063 01       		.byte	0x1
 6678 0064 3F       		.uleb128 0x3f
 6679 0065 19       		.uleb128 0x19
 6680 0066 03       		.uleb128 0x3
ARM GAS  C:\Users\8523~1\AppData\Local\Temp\ccJE8vL2.s 			page 144


 6681 0067 0E       		.uleb128 0xe
 6682 0068 3A       		.uleb128 0x3a
 6683 0069 0B       		.uleb128 0xb
 6684 006a 3B       		.uleb128 0x3b
 6685 006b 05       		.uleb128 0x5
 6686 006c 27       		.uleb128 0x27
 6687 006d 19       		.uleb128 0x19
 6688 006e 11       		.uleb128 0x11
 6689 006f 01       		.uleb128 0x1
 6690 0070 12       		.uleb128 0x12
 6691 0071 06       		.uleb128 0x6
 6692 0072 40       		.uleb128 0x40
 6693 0073 18       		.uleb128 0x18
 6694 0074 9742     		.uleb128 0x2117
 6695 0076 19       		.uleb128 0x19
 6696 0077 01       		.uleb128 0x1
 6697 0078 13       		.uleb128 0x13
 6698 0079 00       		.byte	0
 6699 007a 00       		.byte	0
 6700 007b 09       		.uleb128 0x9
 6701 007c 34       		.uleb128 0x34
 6702 007d 00       		.byte	0
 6703 007e 03       		.uleb128 0x3
 6704 007f 08       		.uleb128 0x8
 6705 0080 3A       		.uleb128 0x3a
 6706 0081 0B       		.uleb128 0xb
 6707 0082 3B       		.uleb128 0x3b
 6708 0083 05       		.uleb128 0x5
 6709 0084 49       		.uleb128 0x49
 6710 0085 13       		.uleb128 0x13
 6711 0086 02       		.uleb128 0x2
 6712 0087 18       		.uleb128 0x18
 6713 0088 00       		.byte	0
 6714 0089 00       		.byte	0
 6715 008a 0A       		.uleb128 0xa
 6716 008b 898201   		.uleb128 0x4109
 6717 008e 01       		.byte	0x1
 6718 008f 11       		.uleb128 0x11
 6719 0090 01       		.uleb128 0x1
 6720 0091 31       		.uleb128 0x31
 6721 0092 13       		.uleb128 0x13
 6722 0093 01       		.uleb128 0x1
 6723 0094 13       		.uleb128 0x13
 6724 0095 00       		.byte	0
 6725 0096 00       		.byte	0
 6726 0097 0B       		.uleb128 0xb
 6727 0098 8A8201   		.uleb128 0x410a
 6728 009b 00       		.byte	0
 6729 009c 02       		.uleb128 0x2
 6730 009d 18       		.uleb128 0x18
 6731 009e 9142     		.uleb128 0x2111
 6732 00a0 18       		.uleb128 0x18
 6733 00a1 00       		.byte	0
 6734 00a2 00       		.byte	0
 6735 00a3 0C       		.uleb128 0xc
 6736 00a4 898201   		.uleb128 0x4109
 6737 00a7 00       		.byte	0
ARM GAS  C:\Users\8523~1\AppData\Local\Temp\ccJE8vL2.s 			page 145


 6738 00a8 11       		.uleb128 0x11
 6739 00a9 01       		.uleb128 0x1
 6740 00aa 31       		.uleb128 0x31
 6741 00ab 13       		.uleb128 0x13
 6742 00ac 00       		.byte	0
 6743 00ad 00       		.byte	0
 6744 00ae 0D       		.uleb128 0xd
 6745 00af 898201   		.uleb128 0x4109
 6746 00b2 01       		.byte	0x1
 6747 00b3 11       		.uleb128 0x11
 6748 00b4 01       		.uleb128 0x1
 6749 00b5 31       		.uleb128 0x31
 6750 00b6 13       		.uleb128 0x13
 6751 00b7 00       		.byte	0
 6752 00b8 00       		.byte	0
 6753 00b9 0E       		.uleb128 0xe
 6754 00ba 2E       		.uleb128 0x2e
 6755 00bb 00       		.byte	0
 6756 00bc 3F       		.uleb128 0x3f
 6757 00bd 19       		.uleb128 0x19
 6758 00be 03       		.uleb128 0x3
 6759 00bf 0E       		.uleb128 0xe
 6760 00c0 3A       		.uleb128 0x3a
 6761 00c1 0B       		.uleb128 0xb
 6762 00c2 3B       		.uleb128 0x3b
 6763 00c3 05       		.uleb128 0x5
 6764 00c4 27       		.uleb128 0x27
 6765 00c5 19       		.uleb128 0x19
 6766 00c6 11       		.uleb128 0x11
 6767 00c7 01       		.uleb128 0x1
 6768 00c8 12       		.uleb128 0x12
 6769 00c9 06       		.uleb128 0x6
 6770 00ca 40       		.uleb128 0x40
 6771 00cb 18       		.uleb128 0x18
 6772 00cc 9742     		.uleb128 0x2117
 6773 00ce 19       		.uleb128 0x19
 6774 00cf 00       		.byte	0
 6775 00d0 00       		.byte	0
 6776 00d1 0F       		.uleb128 0xf
 6777 00d2 05       		.uleb128 0x5
 6778 00d3 00       		.byte	0
 6779 00d4 03       		.uleb128 0x3
 6780 00d5 0E       		.uleb128 0xe
 6781 00d6 3A       		.uleb128 0x3a
 6782 00d7 0B       		.uleb128 0xb
 6783 00d8 3B       		.uleb128 0x3b
 6784 00d9 05       		.uleb128 0x5
 6785 00da 49       		.uleb128 0x49
 6786 00db 13       		.uleb128 0x13
 6787 00dc 02       		.uleb128 0x2
 6788 00dd 17       		.uleb128 0x17
 6789 00de 00       		.byte	0
 6790 00df 00       		.byte	0
 6791 00e0 10       		.uleb128 0x10
 6792 00e1 0B       		.uleb128 0xb
 6793 00e2 01       		.byte	0x1
 6794 00e3 11       		.uleb128 0x11
ARM GAS  C:\Users\8523~1\AppData\Local\Temp\ccJE8vL2.s 			page 146


 6795 00e4 01       		.uleb128 0x1
 6796 00e5 12       		.uleb128 0x12
 6797 00e6 06       		.uleb128 0x6
 6798 00e7 01       		.uleb128 0x1
 6799 00e8 13       		.uleb128 0x13
 6800 00e9 00       		.byte	0
 6801 00ea 00       		.byte	0
 6802 00eb 11       		.uleb128 0x11
 6803 00ec 34       		.uleb128 0x34
 6804 00ed 00       		.byte	0
 6805 00ee 03       		.uleb128 0x3
 6806 00ef 08       		.uleb128 0x8
 6807 00f0 3A       		.uleb128 0x3a
 6808 00f1 0B       		.uleb128 0xb
 6809 00f2 3B       		.uleb128 0x3b
 6810 00f3 05       		.uleb128 0x5
 6811 00f4 49       		.uleb128 0x49
 6812 00f5 13       		.uleb128 0x13
 6813 00f6 00       		.byte	0
 6814 00f7 00       		.byte	0
 6815 00f8 12       		.uleb128 0x12
 6816 00f9 34       		.uleb128 0x34
 6817 00fa 00       		.byte	0
 6818 00fb 03       		.uleb128 0x3
 6819 00fc 0E       		.uleb128 0xe
 6820 00fd 3A       		.uleb128 0x3a
 6821 00fe 0B       		.uleb128 0xb
 6822 00ff 3B       		.uleb128 0x3b
 6823 0100 05       		.uleb128 0x5
 6824 0101 49       		.uleb128 0x49
 6825 0102 13       		.uleb128 0x13
 6826 0103 3F       		.uleb128 0x3f
 6827 0104 19       		.uleb128 0x19
 6828 0105 3C       		.uleb128 0x3c
 6829 0106 19       		.uleb128 0x19
 6830 0107 00       		.byte	0
 6831 0108 00       		.byte	0
 6832 0109 13       		.uleb128 0x13
 6833 010a 35       		.uleb128 0x35
 6834 010b 00       		.byte	0
 6835 010c 49       		.uleb128 0x49
 6836 010d 13       		.uleb128 0x13
 6837 010e 00       		.byte	0
 6838 010f 00       		.byte	0
 6839 0110 14       		.uleb128 0x14
 6840 0111 34       		.uleb128 0x34
 6841 0112 00       		.byte	0
 6842 0113 03       		.uleb128 0x3
 6843 0114 0E       		.uleb128 0xe
 6844 0115 3A       		.uleb128 0x3a
 6845 0116 0B       		.uleb128 0xb
 6846 0117 3B       		.uleb128 0x3b
 6847 0118 05       		.uleb128 0x5
 6848 0119 49       		.uleb128 0x49
 6849 011a 13       		.uleb128 0x13
 6850 011b 3F       		.uleb128 0x3f
 6851 011c 19       		.uleb128 0x19
ARM GAS  C:\Users\8523~1\AppData\Local\Temp\ccJE8vL2.s 			page 147


 6852 011d 02       		.uleb128 0x2
 6853 011e 18       		.uleb128 0x18
 6854 011f 00       		.byte	0
 6855 0120 00       		.byte	0
 6856 0121 15       		.uleb128 0x15
 6857 0122 34       		.uleb128 0x34
 6858 0123 00       		.byte	0
 6859 0124 03       		.uleb128 0x3
 6860 0125 08       		.uleb128 0x8
 6861 0126 3A       		.uleb128 0x3a
 6862 0127 0B       		.uleb128 0xb
 6863 0128 3B       		.uleb128 0x3b
 6864 0129 05       		.uleb128 0x5
 6865 012a 49       		.uleb128 0x49
 6866 012b 13       		.uleb128 0x13
 6867 012c 3F       		.uleb128 0x3f
 6868 012d 19       		.uleb128 0x19
 6869 012e 02       		.uleb128 0x2
 6870 012f 18       		.uleb128 0x18
 6871 0130 00       		.byte	0
 6872 0131 00       		.byte	0
 6873 0132 16       		.uleb128 0x16
 6874 0133 2E       		.uleb128 0x2e
 6875 0134 00       		.byte	0
 6876 0135 3F       		.uleb128 0x3f
 6877 0136 19       		.uleb128 0x19
 6878 0137 3C       		.uleb128 0x3c
 6879 0138 19       		.uleb128 0x19
 6880 0139 6E       		.uleb128 0x6e
 6881 013a 0E       		.uleb128 0xe
 6882 013b 03       		.uleb128 0x3
 6883 013c 0E       		.uleb128 0xe
 6884 013d 3A       		.uleb128 0x3a
 6885 013e 0B       		.uleb128 0xb
 6886 013f 3B       		.uleb128 0x3b
 6887 0140 0B       		.uleb128 0xb
 6888 0141 00       		.byte	0
 6889 0142 00       		.byte	0
 6890 0143 17       		.uleb128 0x17
 6891 0144 2E       		.uleb128 0x2e
 6892 0145 00       		.byte	0
 6893 0146 3F       		.uleb128 0x3f
 6894 0147 19       		.uleb128 0x19
 6895 0148 3C       		.uleb128 0x3c
 6896 0149 19       		.uleb128 0x19
 6897 014a 6E       		.uleb128 0x6e
 6898 014b 0E       		.uleb128 0xe
 6899 014c 03       		.uleb128 0x3
 6900 014d 0E       		.uleb128 0xe
 6901 014e 3A       		.uleb128 0x3a
 6902 014f 0B       		.uleb128 0xb
 6903 0150 3B       		.uleb128 0x3b
 6904 0151 05       		.uleb128 0x5
 6905 0152 00       		.byte	0
 6906 0153 00       		.byte	0
 6907 0154 00       		.byte	0
 6908              		.section	.debug_loc,"",%progbits
ARM GAS  C:\Users\8523~1\AppData\Local\Temp\ccJE8vL2.s 			page 148


 6909              	.Ldebug_loc0:
 6910              	.LLST0:
 6911 0000 00000000 		.4byte	.LVL4
 6912 0004 08000000 		.4byte	.LVL5
 6913 0008 0100     		.2byte	0x1
 6914 000a 50       		.byte	0x50
 6915 000b 08000000 		.4byte	.LVL5
 6916 000f 26000000 		.4byte	.LFE92
 6917 0013 0400     		.2byte	0x4
 6918 0015 F3       		.byte	0xf3
 6919 0016 01       		.uleb128 0x1
 6920 0017 50       		.byte	0x50
 6921 0018 9F       		.byte	0x9f
 6922 0019 00000000 		.4byte	0
 6923 001d 00000000 		.4byte	0
 6924              	.LLST1:
 6925 0021 00000000 		.4byte	.LVL4
 6926 0025 0B000000 		.4byte	.LVL6-1
 6927 0029 0100     		.2byte	0x1
 6928 002b 51       		.byte	0x51
 6929 002c 0B000000 		.4byte	.LVL6-1
 6930 0030 26000000 		.4byte	.LFE92
 6931 0034 0100     		.2byte	0x1
 6932 0036 55       		.byte	0x55
 6933 0037 00000000 		.4byte	0
 6934 003b 00000000 		.4byte	0
 6935              	.LLST2:
 6936 003f 00000000 		.4byte	.LVL15
 6937 0043 08000000 		.4byte	.LVL16
 6938 0047 0100     		.2byte	0x1
 6939 0049 50       		.byte	0x50
 6940 004a 08000000 		.4byte	.LVL16
 6941 004e 26000000 		.4byte	.LFE93
 6942 0052 0400     		.2byte	0x4
 6943 0054 F3       		.byte	0xf3
 6944 0055 01       		.uleb128 0x1
 6945 0056 50       		.byte	0x50
 6946 0057 9F       		.byte	0x9f
 6947 0058 00000000 		.4byte	0
 6948 005c 00000000 		.4byte	0
 6949              	.LLST3:
 6950 0060 00000000 		.4byte	.LVL15
 6951 0064 0B000000 		.4byte	.LVL17-1
 6952 0068 0100     		.2byte	0x1
 6953 006a 51       		.byte	0x51
 6954 006b 0B000000 		.4byte	.LVL17-1
 6955 006f 26000000 		.4byte	.LFE93
 6956 0073 0100     		.2byte	0x1
 6957 0075 55       		.byte	0x55
 6958 0076 00000000 		.4byte	0
 6959 007a 00000000 		.4byte	0
 6960              		.section	.debug_aranges,"",%progbits
 6961 0000 6C000000 		.4byte	0x6c
 6962 0004 0200     		.2byte	0x2
 6963 0006 00000000 		.4byte	.Ldebug_info0
 6964 000a 04       		.byte	0x4
 6965 000b 00       		.byte	0
ARM GAS  C:\Users\8523~1\AppData\Local\Temp\ccJE8vL2.s 			page 149


 6966 000c 0000     		.2byte	0
 6967 000e 0000     		.2byte	0
 6968 0010 00000000 		.4byte	.LFB86
 6969 0014 78000000 		.4byte	.LFE86-.LFB86
 6970 0018 00000000 		.4byte	.LFB87
 6971 001c 94000000 		.4byte	.LFE87-.LFB87
 6972 0020 00000000 		.4byte	.LFB88
 6973 0024 74000000 		.4byte	.LFE88-.LFB88
 6974 0028 00000000 		.4byte	.LFB92
 6975 002c 26000000 		.4byte	.LFE92-.LFB92
 6976 0030 00000000 		.4byte	.LFB90
 6977 0034 2C000000 		.4byte	.LFE90-.LFB90
 6978 0038 00000000 		.4byte	.LFB93
 6979 003c 26000000 		.4byte	.LFE93-.LFB93
 6980 0040 00000000 		.4byte	.LFB91
 6981 0044 2C000000 		.4byte	.LFE91-.LFB91
 6982 0048 00000000 		.4byte	.LFB89
 6983 004c 1C030000 		.4byte	.LFE89-.LFB89
 6984 0050 00000000 		.4byte	.LFB85
 6985 0054 04010000 		.4byte	.LFE85-.LFB85
 6986 0058 00000000 		.4byte	.LFB94
 6987 005c 96000000 		.4byte	.LFE94-.LFB94
 6988 0060 00000000 		.4byte	.LFB95
 6989 0064 48050000 		.4byte	.LFE95-.LFB95
 6990 0068 00000000 		.4byte	0
 6991 006c 00000000 		.4byte	0
 6992              		.section	.debug_ranges,"",%progbits
 6993              	.Ldebug_ranges0:
 6994 0000 00000000 		.4byte	.LFB86
 6995 0004 78000000 		.4byte	.LFE86
 6996 0008 00000000 		.4byte	.LFB87
 6997 000c 94000000 		.4byte	.LFE87
 6998 0010 00000000 		.4byte	.LFB88
 6999 0014 74000000 		.4byte	.LFE88
 7000 0018 00000000 		.4byte	.LFB92
 7001 001c 26000000 		.4byte	.LFE92
 7002 0020 00000000 		.4byte	.LFB90
 7003 0024 2C000000 		.4byte	.LFE90
 7004 0028 00000000 		.4byte	.LFB93
 7005 002c 26000000 		.4byte	.LFE93
 7006 0030 00000000 		.4byte	.LFB91
 7007 0034 2C000000 		.4byte	.LFE91
 7008 0038 00000000 		.4byte	.LFB89
 7009 003c 1C030000 		.4byte	.LFE89
 7010 0040 00000000 		.4byte	.LFB85
 7011 0044 04010000 		.4byte	.LFE85
 7012 0048 00000000 		.4byte	.LFB94
 7013 004c 96000000 		.4byte	.LFE94
 7014 0050 00000000 		.4byte	.LFB95
 7015 0054 48050000 		.4byte	.LFE95
 7016 0058 00000000 		.4byte	0
 7017 005c 00000000 		.4byte	0
 7018              		.section	.debug_line,"",%progbits
 7019              	.Ldebug_line0:
 7020 0000 82050000 		.section	.debug_str,"MS",%progbits,1
 7020      02003702 
 7020      00000201 
ARM GAS  C:\Users\8523~1\AppData\Local\Temp\ccJE8vL2.s 			page 150


 7020      FB0E0D00 
 7020      01010101 
 7021              	.LASF14:
 7022 0000 75696E74 		.ascii	"uint32_t\000"
 7022      33325F74 
 7022      00
 7023              	.LASF42:
 7024 0009 73746172 		.ascii	"starttime\000"
 7024      7474696D 
 7024      6500
 7025              	.LASF66:
 7026 0013 6D6F746F 		.ascii	"motor_stop\000"
 7026      725F7374 
 7026      6F7000
 7027              	.LASF2:
 7028 001e 73686F72 		.ascii	"short int\000"
 7028      7420696E 
 7028      7400
 7029              	.LASF21:
 7030 0028 73697A65 		.ascii	"sizetype\000"
 7030      74797065 
 7030      00
 7031              	.LASF23:
 7032 0031 73656E73 		.ascii	"sensors\000"
 7032      6F727300 
 7033              	.LASF45:
 7034 0039 636F6D70 		.ascii	"compass\000"
 7034      61737300 
 7035              	.LASF7:
 7036 0041 5F5F7569 		.ascii	"__uint32_t\000"
 7036      6E743332 
 7036      5F7400
 7037              	.LASF27:
 7038 004c 64656C61 		.ascii	"delay\000"
 7038      7900
 7039              	.LASF4:
 7040 0052 5F5F7569 		.ascii	"__uint16_t\000"
 7040      6E743136 
 7040      5F7400
 7041              	.LASF33:
 7042 005d 72657665 		.ascii	"reveille\000"
 7042      696C6C65 
 7042      00
 7043              	.LASF70:
 7044 0066 73656E73 		.ascii	"sensors_\000"
 7044      6F72735F 
 7044      00
 7045              	.LASF30:
 7046 006f 7475726E 		.ascii	"turn_right\000"
 7046      5F726967 
 7046      687400
 7047              	.LASF41:
 7048 007a 6F6E6C69 		.ascii	"online\000"
 7048      6E6500
 7049              	.LASF56:
 7050 0081 6D6F746F 		.ascii	"motor_turn\000"
 7050      725F7475 
ARM GAS  C:\Users\8523~1\AppData\Local\Temp\ccJE8vL2.s 			page 151


 7050      726E00
 7051              	.LASF15:
 7052 008c 75696E74 		.ascii	"uint8\000"
 7052      3800
 7053              	.LASF24:
 7054 0092 6C696E65 		.ascii	"linedetector\000"
 7054      64657465 
 7054      63746F72 
 7054      00
 7055              	.LASF36:
 7056 009f 6C696E65 		.ascii	"line\000"
 7056      00
 7057              	.LASF60:
 7058 00a4 7265666C 		.ascii	"reflectance_start\000"
 7058      65637461 
 7058      6E63655F 
 7058      73746172 
 7058      7400
 7059              	.LASF48:
 7060 00b6 556C7472 		.ascii	"Ultra_GetDistance\000"
 7060      615F4765 
 7060      74446973 
 7060      74616E63 
 7060      6500
 7061              	.LASF17:
 7062 00c8 666C6F61 		.ascii	"float\000"
 7062      7400
 7063              	.LASF9:
 7064 00ce 6C6F6E67 		.ascii	"long long int\000"
 7064      206C6F6E 
 7064      6720696E 
 7064      7400
 7065              	.LASF43:
 7066 00dc 66696E69 		.ascii	"finishtime\000"
 7066      73687469 
 7066      6D6500
 7067              	.LASF52:
 7068 00e7 50574D5F 		.ascii	"PWM_WriteCompare1\000"
 7068      57726974 
 7068      65436F6D 
 7068      70617265 
 7068      3100
 7069              	.LASF47:
 7070 00f9 7265666C 		.ascii	"reflectance_digital\000"
 7070      65637461 
 7070      6E63655F 
 7070      64696769 
 7070      74616C00 
 7071              	.LASF6:
 7072 010d 6C6F6E67 		.ascii	"long int\000"
 7072      20696E74 
 7072      00
 7073              	.LASF31:
 7074 0116 64726976 		.ascii	"drive\000"
 7074      6500
 7075              	.LASF65:
 7076 011c 78546173 		.ascii	"xTaskGetTickCount\000"
ARM GAS  C:\Users\8523~1\AppData\Local\Temp\ccJE8vL2.s 			page 152


 7076      6B476574 
 7076      5469636B 
 7076      436F756E 
 7076      7400
 7077              	.LASF51:
 7078 012e 4D6F746F 		.ascii	"MotorDirRight_Write\000"
 7078      72446972 
 7078      52696768 
 7078      745F5772 
 7078      69746500 
 7079              	.LASF57:
 7080 0142 49525F53 		.ascii	"IR_Start\000"
 7080      74617274 
 7080      00
 7081              	.LASF25:
 7082 014b 74616E6B 		.ascii	"tank_turn_left\000"
 7082      5F747572 
 7082      6E5F6C65 
 7082      667400
 7083              	.LASF22:
 7084 015a 5469636B 		.ascii	"TickType_t\000"
 7084      54797065 
 7084      5F7400
 7085              	.LASF20:
 7086 0165 6C6F6E67 		.ascii	"long double\000"
 7086      20646F75 
 7086      626C6500 
 7087              	.LASF59:
 7088 0171 556C7472 		.ascii	"Ultra_Start\000"
 7088      615F5374 
 7088      61727400 
 7089              	.LASF1:
 7090 017d 756E7369 		.ascii	"unsigned char\000"
 7090      676E6564 
 7090      20636861 
 7090      7200
 7091              	.LASF63:
 7092 018b 42656570 		.ascii	"Beep\000"
 7092      00
 7093              	.LASF0:
 7094 0190 7369676E 		.ascii	"signed char\000"
 7094      65642063 
 7094      68617200 
 7095              	.LASF10:
 7096 019c 6C6F6E67 		.ascii	"long long unsigned int\000"
 7096      206C6F6E 
 7096      6720756E 
 7096      7369676E 
 7096      65642069 
 7097              	.LASF54:
 7098 01b3 76546173 		.ascii	"vTaskDelay\000"
 7098      6B44656C 
 7098      617900
 7099              	.LASF58:
 7100 01be 49525F66 		.ascii	"IR_flush\000"
 7100      6C757368 
 7100      00
ARM GAS  C:\Users\8523~1\AppData\Local\Temp\ccJE8vL2.s 			page 153


 7101              	.LASF11:
 7102 01c7 756E7369 		.ascii	"unsigned int\000"
 7102      676E6564 
 7102      20696E74 
 7102      00
 7103              	.LASF12:
 7104 01d4 75696E74 		.ascii	"uint16_t\000"
 7104      31365F74 
 7104      00
 7105              	.LASF26:
 7106 01dd 73706565 		.ascii	"speed\000"
 7106      6400
 7107              	.LASF53:
 7108 01e3 50574D5F 		.ascii	"PWM_WriteCompare2\000"
 7108      57726974 
 7108      65436F6D 
 7108      70617265 
 7108      3200
 7109              	.LASF55:
 7110 01f5 6D6F746F 		.ascii	"motor_forward\000"
 7110      725F666F 
 7110      72776172 
 7110      6400
 7111              	.LASF29:
 7112 0203 74616E6B 		.ascii	"tank_turn_right\000"
 7112      5F747572 
 7112      6E5F7269 
 7112      67687400 
 7113              	.LASF19:
 7114 0213 63686172 		.ascii	"char\000"
 7114      00
 7115              	.LASF37:
 7116 0218 64697374 		.ascii	"distance\000"
 7116      616E6365 
 7116      00
 7117              	.LASF71:
 7118 0221 636F6F72 		.ascii	"coordinatecounter\000"
 7118      64696E61 
 7118      7465636F 
 7118      756E7465 
 7118      7200
 7119              	.LASF13:
 7120 0233 696E7433 		.ascii	"int32_t\000"
 7120      325F7400 
 7121              	.LASF3:
 7122 023b 73686F72 		.ascii	"short unsigned int\000"
 7122      7420756E 
 7122      7369676E 
 7122      65642069 
 7122      6E7400
 7123              	.LASF49:
 7124 024e 7072696E 		.ascii	"print_mqtt\000"
 7124      745F6D71 
 7124      747400
 7125              	.LASF62:
 7126 0259 5357315F 		.ascii	"SW1_Read\000"
 7126      52656164 
ARM GAS  C:\Users\8523~1\AppData\Local\Temp\ccJE8vL2.s 			page 154


 7126      00
 7127              	.LASF16:
 7128 0262 75696E74 		.ascii	"uint32\000"
 7128      333200
 7129              	.LASF68:
 7130 0269 6D61696E 		.ascii	"main.c\000"
 7130      2E6300
 7131              	.LASF8:
 7132 0270 6C6F6E67 		.ascii	"long unsigned int\000"
 7132      20756E73 
 7132      69676E65 
 7132      6420696E 
 7132      7400
 7133              	.LASF34:
 7134 0282 6368616D 		.ascii	"champions\000"
 7134      70696F6E 
 7134      7300
 7135              	.LASF18:
 7136 028c 646F7562 		.ascii	"double\000"
 7136      6C6500
 7137              	.LASF61:
 7138 0293 6D6F746F 		.ascii	"motor_start\000"
 7138      725F7374 
 7138      61727400 
 7139              	.LASF35:
 7140 029f 49544D5F 		.ascii	"ITM_RxBuffer\000"
 7140      52784275 
 7140      66666572 
 7140      00
 7141              	.LASF69:
 7142 02ac 433A5C52 		.ascii	"C:\\Robo-Project\\Zumo-master\\ZumoBot.cydsn\000"
 7142      6F626F2D 
 7142      50726F6A 
 7142      6563745C 
 7142      5A756D6F 
 7143              	.LASF38:
 7144 02d6 6F627374 		.ascii	"obstacle\000"
 7144      61636C65 
 7144      00
 7145              	.LASF32:
 7146 02df 7A6D6169 		.ascii	"zmain\000"
 7146      6E00
 7147              	.LASF5:
 7148 02e5 5F5F696E 		.ascii	"__int32_t\000"
 7148      7433325F 
 7148      7400
 7149              	.LASF44:
 7150 02ef 74696D65 		.ascii	"timepass\000"
 7150      70617373 
 7150      00
 7151              	.LASF40:
 7152 02f8 6F6E7768 		.ascii	"onwhite\000"
 7152      69746500 
 7153              	.LASF28:
 7154 0300 7475726E 		.ascii	"turn_left\000"
 7154      5F6C6566 
 7154      7400
ARM GAS  C:\Users\8523~1\AppData\Local\Temp\ccJE8vL2.s 			page 155


 7155              	.LASF64:
 7156 030a 49525F77 		.ascii	"IR_wait\000"
 7156      61697400 
 7157              	.LASF67:
 7158 0312 474E5520 		.ascii	"GNU C11 5.4.1 20160609 (release) [ARM/embedded-5-br"
 7158      43313120 
 7158      352E342E 
 7158      31203230 
 7158      31363036 
 7159 0345 616E6368 		.ascii	"anch revision 237715] -mcpu=cortex-m3 -mthumb -g -O"
 7159      20726576 
 7159      6973696F 
 7159      6E203233 
 7159      37373135 
 7160 0378 67202D66 		.ascii	"g -ffunction-sections -ffat-lto-objects\000"
 7160      66756E63 
 7160      74696F6E 
 7160      2D736563 
 7160      74696F6E 
 7161              	.LASF39:
 7162 03a0 6F6E626C 		.ascii	"onblack\000"
 7162      61636B00 
 7163              	.LASF50:
 7164 03a8 4D6F746F 		.ascii	"MotorDirLeft_Write\000"
 7164      72446972 
 7164      4C656674 
 7164      5F577269 
 7164      746500
 7165              	.LASF46:
 7166 03bb 7265666C 		.ascii	"reflectance_set_threshold\000"
 7166      65637461 
 7166      6E63655F 
 7166      7365745F 
 7166      74687265 
 7167              		.ident	"GCC: (GNU Tools for ARM Embedded Processors) 5.4.1 20160609 (release) [ARM/embedded-5-bran
