ARM GAS  C:\Users\8523~1\AppData\Local\Temp\ccW5Lol5.s 			page 1


   1              		.syntax unified
   2              		.cpu cortex-m3
   3              		.fpu softvfp
   4              		.eabi_attribute 20, 1
   5              		.eabi_attribute 21, 1
   6              		.eabi_attribute 23, 3
   7              		.eabi_attribute 24, 1
   8              		.eabi_attribute 25, 1
   9              		.eabi_attribute 26, 1
  10              		.eabi_attribute 30, 1
  11              		.eabi_attribute 34, 1
  12              		.eabi_attribute 18, 4
  13              		.thumb
  14              		.syntax unified
  15              		.file	"Motor.c"
  16              		.text
  17              	.Ltext0:
  18              		.cfi_sections	.debug_frame
  19              		.section	.text.motor_start,"ax",%progbits
  20              		.align	2
  21              		.global	motor_start
  22              		.thumb
  23              		.thumb_func
  24              		.type	motor_start, %function
  25              	motor_start:
  26              	.LFB68:
  27              		.file 1 "ZumoLibrary\\Motor.c"
   1:ZumoLibrary/Motor.c **** /**
   2:ZumoLibrary/Motor.c ****  * @file    Motor.c
   3:ZumoLibrary/Motor.c ****  * @brief   Basic methods for operating motor sensor. For more details, please refer to Motor.h fil
   4:ZumoLibrary/Motor.c ****  * @details included in Zumo shield
   5:ZumoLibrary/Motor.c **** */
   6:ZumoLibrary/Motor.c **** #include "FreeRTOS.h"
   7:ZumoLibrary/Motor.c **** #include "task.h"
   8:ZumoLibrary/Motor.c **** #include "Motor.h"
   9:ZumoLibrary/Motor.c **** 
  10:ZumoLibrary/Motor.c **** 
  11:ZumoLibrary/Motor.c **** /**
  12:ZumoLibrary/Motor.c **** * @brief    Starting motor sensors
  13:ZumoLibrary/Motor.c **** * @details  
  14:ZumoLibrary/Motor.c **** */
  15:ZumoLibrary/Motor.c **** void motor_start()
  16:ZumoLibrary/Motor.c **** {
  28              		.loc 1 16 0
  29              		.cfi_startproc
  30              		@ args = 0, pretend = 0, frame = 0
  31              		@ frame_needed = 0, uses_anonymous_args = 0
  32 0000 08B5     		push	{r3, lr}
  33              		.cfi_def_cfa_offset 8
  34              		.cfi_offset 3, -8
  35              		.cfi_offset 14, -4
  17:ZumoLibrary/Motor.c ****     PWM_Start();
  36              		.loc 1 17 0
  37 0002 FFF7FEFF 		bl	PWM_Start
  38              	.LVL0:
  39 0006 08BD     		pop	{r3, pc}
  40              		.cfi_endproc
ARM GAS  C:\Users\8523~1\AppData\Local\Temp\ccW5Lol5.s 			page 2


  41              	.LFE68:
  42              		.size	motor_start, .-motor_start
  43              		.section	.text.motor_stop,"ax",%progbits
  44              		.align	2
  45              		.global	motor_stop
  46              		.thumb
  47              		.thumb_func
  48              		.type	motor_stop, %function
  49              	motor_stop:
  50              	.LFB69:
  18:ZumoLibrary/Motor.c **** }
  19:ZumoLibrary/Motor.c **** 
  20:ZumoLibrary/Motor.c **** 
  21:ZumoLibrary/Motor.c **** /**
  22:ZumoLibrary/Motor.c **** * @brief    Stopping motor sensors
  23:ZumoLibrary/Motor.c **** * @details
  24:ZumoLibrary/Motor.c **** */
  25:ZumoLibrary/Motor.c **** void motor_stop()
  26:ZumoLibrary/Motor.c **** {
  51              		.loc 1 26 0
  52              		.cfi_startproc
  53              		@ args = 0, pretend = 0, frame = 0
  54              		@ frame_needed = 0, uses_anonymous_args = 0
  55 0000 08B5     		push	{r3, lr}
  56              		.cfi_def_cfa_offset 8
  57              		.cfi_offset 3, -8
  58              		.cfi_offset 14, -4
  27:ZumoLibrary/Motor.c ****     PWM_Stop();
  59              		.loc 1 27 0
  60 0002 FFF7FEFF 		bl	PWM_Stop
  61              	.LVL1:
  62 0006 08BD     		pop	{r3, pc}
  63              		.cfi_endproc
  64              	.LFE69:
  65              		.size	motor_stop, .-motor_stop
  66              		.section	.text.motor_forward,"ax",%progbits
  67              		.align	2
  68              		.global	motor_forward
  69              		.thumb
  70              		.thumb_func
  71              		.type	motor_forward, %function
  72              	motor_forward:
  73              	.LFB70:
  28:ZumoLibrary/Motor.c **** }
  29:ZumoLibrary/Motor.c **** 
  30:ZumoLibrary/Motor.c **** 
  31:ZumoLibrary/Motor.c **** /**
  32:ZumoLibrary/Motor.c **** * @brief    Moving motors forward
  33:ZumoLibrary/Motor.c **** * @details  giveing same speed to each side of PWM to make motors go forward
  34:ZumoLibrary/Motor.c **** * @param    uint8 speed : speed value
  35:ZumoLibrary/Motor.c **** * @param    uint32 delay : delay time
  36:ZumoLibrary/Motor.c **** */
  37:ZumoLibrary/Motor.c **** void motor_forward(uint8 speed,uint32 delay)
  38:ZumoLibrary/Motor.c **** {
  74              		.loc 1 38 0
  75              		.cfi_startproc
  76              		@ args = 0, pretend = 0, frame = 0
ARM GAS  C:\Users\8523~1\AppData\Local\Temp\ccW5Lol5.s 			page 3


  77              		@ frame_needed = 0, uses_anonymous_args = 0
  78              	.LVL2:
  79 0000 38B5     		push	{r3, r4, r5, lr}
  80              		.cfi_def_cfa_offset 16
  81              		.cfi_offset 3, -16
  82              		.cfi_offset 4, -12
  83              		.cfi_offset 5, -8
  84              		.cfi_offset 14, -4
  85 0002 0446     		mov	r4, r0
  86 0004 0D46     		mov	r5, r1
  39:ZumoLibrary/Motor.c ****     MotorDirLeft_Write(0);      // set LeftMotor forward mode
  87              		.loc 1 39 0
  88 0006 0020     		movs	r0, #0
  89              	.LVL3:
  90 0008 FFF7FEFF 		bl	MotorDirLeft_Write
  91              	.LVL4:
  40:ZumoLibrary/Motor.c ****     MotorDirRight_Write(0);     // set RightMotor forward mode
  92              		.loc 1 40 0
  93 000c 0020     		movs	r0, #0
  94 000e FFF7FEFF 		bl	MotorDirRight_Write
  95              	.LVL5:
  41:ZumoLibrary/Motor.c ****     PWM_WriteCompare1(speed); 
  96              		.loc 1 41 0
  97 0012 2046     		mov	r0, r4
  98 0014 FFF7FEFF 		bl	PWM_WriteCompare1
  99              	.LVL6:
  42:ZumoLibrary/Motor.c ****     PWM_WriteCompare2(speed); 
 100              		.loc 1 42 0
 101 0018 2046     		mov	r0, r4
 102 001a FFF7FEFF 		bl	PWM_WriteCompare2
 103              	.LVL7:
  43:ZumoLibrary/Motor.c ****     vTaskDelay(delay);
 104              		.loc 1 43 0
 105 001e 2846     		mov	r0, r5
 106 0020 FFF7FEFF 		bl	vTaskDelay
 107              	.LVL8:
 108 0024 38BD     		pop	{r3, r4, r5, pc}
 109              		.cfi_endproc
 110              	.LFE70:
 111              		.size	motor_forward, .-motor_forward
 112 0026 00BF     		.section	.text.tank_turn,"ax",%progbits
 113              		.align	2
 114              		.global	tank_turn
 115              		.thumb
 116              		.thumb_func
 117              		.type	tank_turn, %function
 118              	tank_turn:
 119              	.LFB71:
  44:ZumoLibrary/Motor.c **** }
  45:ZumoLibrary/Motor.c **** 
  46:ZumoLibrary/Motor.c **** void tank_turn(uint8 l_speed, uint8 r_speed, uint32 delay)
  47:ZumoLibrary/Motor.c **** {
 120              		.loc 1 47 0
 121              		.cfi_startproc
 122              		@ args = 0, pretend = 0, frame = 0
 123              		@ frame_needed = 0, uses_anonymous_args = 0
 124              	.LVL9:
ARM GAS  C:\Users\8523~1\AppData\Local\Temp\ccW5Lol5.s 			page 4


 125 0000 70B5     		push	{r4, r5, r6, lr}
 126              		.cfi_def_cfa_offset 16
 127              		.cfi_offset 4, -16
 128              		.cfi_offset 5, -12
 129              		.cfi_offset 6, -8
 130              		.cfi_offset 14, -4
 131 0002 0646     		mov	r6, r0
 132 0004 0D46     		mov	r5, r1
 133 0006 1446     		mov	r4, r2
  48:ZumoLibrary/Motor.c ****     MotorDirLeft_Write(0);      // set LeftMotor forward mode
 134              		.loc 1 48 0
 135 0008 0020     		movs	r0, #0
 136              	.LVL10:
 137 000a FFF7FEFF 		bl	MotorDirLeft_Write
 138              	.LVL11:
  49:ZumoLibrary/Motor.c ****     MotorDirRight_Write(1);     // set RightMotor forward mode
 139              		.loc 1 49 0
 140 000e 0120     		movs	r0, #1
 141 0010 FFF7FEFF 		bl	MotorDirRight_Write
 142              	.LVL12:
  50:ZumoLibrary/Motor.c ****     PWM_WriteCompare1(l_speed); 
 143              		.loc 1 50 0
 144 0014 3046     		mov	r0, r6
 145 0016 FFF7FEFF 		bl	PWM_WriteCompare1
 146              	.LVL13:
  51:ZumoLibrary/Motor.c ****     PWM_WriteCompare2(r_speed); 
 147              		.loc 1 51 0
 148 001a 2846     		mov	r0, r5
 149 001c FFF7FEFF 		bl	PWM_WriteCompare2
 150              	.LVL14:
  52:ZumoLibrary/Motor.c ****     vTaskDelay(delay);
 151              		.loc 1 52 0
 152 0020 2046     		mov	r0, r4
 153 0022 FFF7FEFF 		bl	vTaskDelay
 154              	.LVL15:
 155 0026 70BD     		pop	{r4, r5, r6, pc}
 156              		.cfi_endproc
 157              	.LFE71:
 158              		.size	tank_turn, .-tank_turn
 159              		.section	.text.motor_turn,"ax",%progbits
 160              		.align	2
 161              		.global	motor_turn
 162              		.thumb
 163              		.thumb_func
 164              		.type	motor_turn, %function
 165              	motor_turn:
 166              	.LFB72:
  53:ZumoLibrary/Motor.c **** }
  54:ZumoLibrary/Motor.c **** 
  55:ZumoLibrary/Motor.c **** 
  56:ZumoLibrary/Motor.c **** /**
  57:ZumoLibrary/Motor.c **** * @brief    Moving motors to make a turn 
  58:ZumoLibrary/Motor.c **** * @details  moving left when l_speed < r_speed or moving right when l_speed > r_speed
  59:ZumoLibrary/Motor.c **** * @param    uint8 l_speed : left motor speed value
  60:ZumoLibrary/Motor.c **** * @param    uint8 r_speed : right motor speed value
  61:ZumoLibrary/Motor.c **** * @param    uint32 delay : delay time
  62:ZumoLibrary/Motor.c **** */
ARM GAS  C:\Users\8523~1\AppData\Local\Temp\ccW5Lol5.s 			page 5


  63:ZumoLibrary/Motor.c **** void motor_turn(uint8 l_speed, uint8 r_speed, uint32 delay)
  64:ZumoLibrary/Motor.c **** {
 167              		.loc 1 64 0
 168              		.cfi_startproc
 169              		@ args = 0, pretend = 0, frame = 0
 170              		@ frame_needed = 0, uses_anonymous_args = 0
 171              	.LVL16:
 172 0000 38B5     		push	{r3, r4, r5, lr}
 173              		.cfi_def_cfa_offset 16
 174              		.cfi_offset 3, -16
 175              		.cfi_offset 4, -12
 176              		.cfi_offset 5, -8
 177              		.cfi_offset 14, -4
 178 0002 0D46     		mov	r5, r1
 179 0004 1446     		mov	r4, r2
  65:ZumoLibrary/Motor.c ****     PWM_WriteCompare1(l_speed); 
 180              		.loc 1 65 0
 181 0006 FFF7FEFF 		bl	PWM_WriteCompare1
 182              	.LVL17:
  66:ZumoLibrary/Motor.c ****     PWM_WriteCompare2(r_speed); 
 183              		.loc 1 66 0
 184 000a 2846     		mov	r0, r5
 185 000c FFF7FEFF 		bl	PWM_WriteCompare2
 186              	.LVL18:
  67:ZumoLibrary/Motor.c ****     vTaskDelay(delay);
 187              		.loc 1 67 0
 188 0010 2046     		mov	r0, r4
 189 0012 FFF7FEFF 		bl	vTaskDelay
 190              	.LVL19:
 191 0016 38BD     		pop	{r3, r4, r5, pc}
 192              		.cfi_endproc
 193              	.LFE72:
 194              		.size	motor_turn, .-motor_turn
 195              		.section	.text.motor_backward,"ax",%progbits
 196              		.align	2
 197              		.global	motor_backward
 198              		.thumb
 199              		.thumb_func
 200              		.type	motor_backward, %function
 201              	motor_backward:
 202              	.LFB73:
  68:ZumoLibrary/Motor.c **** }
  69:ZumoLibrary/Motor.c **** 
  70:ZumoLibrary/Motor.c **** 
  71:ZumoLibrary/Motor.c **** /**
  72:ZumoLibrary/Motor.c **** * @brief    Moving motors backward
  73:ZumoLibrary/Motor.c **** * @details  setting backward mode to each motors and gives same speed to each side of PWM
  74:ZumoLibrary/Motor.c **** * @param    uint8 speed : speed value
  75:ZumoLibrary/Motor.c **** * @param    uint32 delay : delay time
  76:ZumoLibrary/Motor.c **** */
  77:ZumoLibrary/Motor.c **** void motor_backward(uint8 speed,uint32 delay)
  78:ZumoLibrary/Motor.c **** {
 203              		.loc 1 78 0
 204              		.cfi_startproc
 205              		@ args = 0, pretend = 0, frame = 0
 206              		@ frame_needed = 0, uses_anonymous_args = 0
 207              	.LVL20:
ARM GAS  C:\Users\8523~1\AppData\Local\Temp\ccW5Lol5.s 			page 6


 208 0000 38B5     		push	{r3, r4, r5, lr}
 209              		.cfi_def_cfa_offset 16
 210              		.cfi_offset 3, -16
 211              		.cfi_offset 4, -12
 212              		.cfi_offset 5, -8
 213              		.cfi_offset 14, -4
 214 0002 0446     		mov	r4, r0
 215 0004 0D46     		mov	r5, r1
  79:ZumoLibrary/Motor.c ****     MotorDirLeft_Write(1);      // set LeftMotor backward mode
 216              		.loc 1 79 0
 217 0006 0120     		movs	r0, #1
 218              	.LVL21:
 219 0008 FFF7FEFF 		bl	MotorDirLeft_Write
 220              	.LVL22:
  80:ZumoLibrary/Motor.c ****     MotorDirRight_Write(1);     // set RightMotor backward mode
 221              		.loc 1 80 0
 222 000c 0120     		movs	r0, #1
 223 000e FFF7FEFF 		bl	MotorDirRight_Write
 224              	.LVL23:
  81:ZumoLibrary/Motor.c ****     PWM_WriteCompare1(speed); 
 225              		.loc 1 81 0
 226 0012 2046     		mov	r0, r4
 227 0014 FFF7FEFF 		bl	PWM_WriteCompare1
 228              	.LVL24:
  82:ZumoLibrary/Motor.c ****     PWM_WriteCompare2(speed); 
 229              		.loc 1 82 0
 230 0018 2046     		mov	r0, r4
 231 001a FFF7FEFF 		bl	PWM_WriteCompare2
 232              	.LVL25:
  83:ZumoLibrary/Motor.c ****     vTaskDelay(delay);
 233              		.loc 1 83 0
 234 001e 2846     		mov	r0, r5
 235 0020 FFF7FEFF 		bl	vTaskDelay
 236              	.LVL26:
 237 0024 38BD     		pop	{r3, r4, r5, pc}
 238              		.cfi_endproc
 239              	.LFE73:
 240              		.size	motor_backward, .-motor_backward
 241 0026 00BF     		.text
 242              	.Letext0:
 243              		.file 2 "c:\\program files (x86)\\cypress\\psoc creator\\4.2\\psoc creator\\import\\gnu\\arm\\5.4.
 244              		.file 3 "c:\\program files (x86)\\cypress\\psoc creator\\4.2\\psoc creator\\import\\gnu\\arm\\5.4.
 245              		.file 4 "Generated_Source\\PSoC5/cytypes.h"
 246              		.file 5 "Generated_Source\\PSoC5/PWM.h"
 247              		.file 6 "Generated_Source\\PSoC5/MotorDirLeft.h"
 248              		.file 7 "Generated_Source\\PSoC5/MotorDirRight.h"
 249              		.file 8 "..\\FreeRTOS\\Source\\include/task.h"
 250              		.file 9 "Generated_Source\\PSoC5/core_cm3.h"